Microsoft (R) Macro Assembler Version 5.10                  12/22/19 22:44:1
                                                             Page     1-1


				; Including Macros Library
				INCLUDE ship.inc
			     C	; MVSH1UP : Move Ship1 UP
			     C	; SHOULD INCLUDE lib.inc
			     C	MVSH1UP MACRO
			     C	    LOCAL OUT_LP
			     C		LOCAL cont
			     C		push ax
			     C		xor ax,ax
			     C		mov ax,Ship1_Speed
			     C		cont:
			     C		CMP SH1P1FY,1  ;if it is in the upper p
				ossible y
			     C	    JZ OUT_LP
			     C		push ax
			     C	    MOVEUP  sh1p1fy,ShipSizep1y,sh1p1fx,sh1p1EN
				Dx,BGCOLOR,ship1color ;MOVE UP SHIP 1 PART 1 "M
				OVEUP" IS A MACRO
			     C	    MOVEUP  sh1p2fy,ShipSizep2y,sh1p2fx,sh1p2EN
				Dx,BGCOLOR,ship1color ;MOVE UP SHIP 1 PART 2 "M
				OVEUP" IS A MACRO
			     C		pop ax
			     C		dec ax
			     C		jnz cont
			     C	    OUT_LP: NOP
			     C	ENDM MVSH1UP
			     C	
			     C	; MVSH1DOWN : Move Ship1 Down
			     C	; SHOULD INCLUDE lib.inc
			     C	MVSH1DOWN MACRO
			     C	 LOCAL OUT_LP
			     C	 LOCAL cont
			     C		push ax
			     C		xor ax,ax
			     C		mov ax,Ship1_Speed
			     C		cont:
			     C	    CMP SH1P1FY,115 ;if it is in the end possib
				le y
			     C	    JZ OUT_LP
			     C		push ax
			     C	    MOVEDOWN  sh1p1fy,ShipSizep1y,sh1p1fx,sh1p1
				ENDx,BGCOLOR,ship1color ;MOVE DOWN SHIP 1 PART 
				1 "MOVEDOWN" IS A MACRO
			     C	    MOVEDOWN  sh1p2fy,ShipSizep2y,sh1p2fx,sh1p2
				ENDx,BGCOLOR,ship1color ;MOVE DOWN SHIP 1 PART 
				2 "MOVEDOWN" IS A MACRO
			     C		pop ax
			     C		dec ax
			     C		jnz cont
			     C		OUT_LP: NOP
			     C	ENDM MVSH1DOWN
			     C	
			     C	; MVSH2UP : Move Ship2 UP
			     C	; SHOULD INCLUDE lib.inc
Microsoft (R) Macro Assembler Version 5.10                  12/22/19 22:44:1
                                                             Page     1-2


			     C	MVSH2UP MACRO
			     C	    LOCAL OUT_LP
			     C		LOCAL cont
			     C		push ax
			     C		xor ax,ax
			     C		mov ax,Ship2_Speed
			     C		cont:
			     C		CMP SH2P1FY,1  ;if it is in the upper p
				ossible y
			     C	    JZ OUT_LP
			     C		push ax
			     C	    MOVEUP  sh2p1fy,ShipSizep1y,sh2p1fx,sh2p1EN
				Dx,BGCOLOR,ship2color ;MOVE  UP SHIP 2 PART 1 "
				MOVEUP" IS A MACRO
			     C	    MOVEUP  sh2p2fy,ShipSizep2y,sh2p2fx,sh2p2EN
				Dx,BGCOLOR,ship2color ;MOVE  UP SHIP 2 PART 2 "
				MOVEUP" IS A MACRO
			     C		pop ax
			     C		dec ax
			     C		jnz cont
			     C	OUT_LP: NOP
			     C	ENDM MVSH2UP
			     C	
			     C	; MVSH2UP : Move Ship2 DOWN
			     C	; SHOULD INCLUDE lib.inc
			     C	MVSH2DOWN MACRO
			     C	    LOCAL OUT_LP
			     C		LOCAL OUT_LP
			     C		LOCAL cont
			     C		push ax
			     C		xor ax,ax
			     C		mov ax,Ship2_Speed
			     C		cont:
			     C	    CMP SH2P1FY,115  ;if it is in the end possi
				ble y
			     C	    JZ OUT_LP
			     C		push ax
			     C	    MOVEDOWN  sh2p1fy,ShipSizep1y,sh2p1fx,sh2p1
				ENDx,BGCOLOR,ship2color ;MOVE DOWN SHIP 2 PART 
				1 "MOVEDOWN" IS A MACRO
			     C	    MOVEDOWN  sh2p2fy,ShipSizep2y,sh2p2fx,sh2p2
				ENDx,BGCOLOR,ship2color ;MOVE DOWN SHIP 2 PART 
				2 "MOVEDOWN" IS A MACRO
			     C		pop ax
			     C		dec ax
			     C		jnz cont
			     C	OUT_LP: NOP
			     C	ENDM MVSH2UP
				INCLUDE bullet.inc
			     C	; **************************************
			     C	; **** ADD LEFT BULLET MACRO ********
			     C	; * Increments count and moves pointer and call
				s INITBUL 
			     C	; * USES : AX, BX, CX, DX, SI, DI
Microsoft (R) Macro Assembler Version 5.10                  12/22/19 22:44:1
                                                             Page     1-3


			     C	; * PARAMS : DI => *First_Empty_Byte
			     C	; ****************************************
			     C	ADDBULL MACRO 
			     C	        LOCAL NOADDL
			     C	        CMP [DI],0FEFEH  ; Reached the end of t
				he array then no drawing
			     C	        JE  NOADDL
			     C	        MOV CX,sh1p2ENDx
			     C	        MOV DX,sh1p2fy
			     C	        INC CX
			     C	        ADD DX,2
			     C	        CMP p1_bulls,25D      ; If the bullet c
				ount reached the maximum, then no draw
			     C	        JE  NOADDL
			     C	        INC p1_bulls          ; Passed all chec
				ks !! Which means we can draw left bullet
			     C	        INITBUL
			     C	        ; This is equivalent to a binary with a
				ll ones except the MSB and this sets the type t
				o Left
			     C	        ; I then store it in the first bit of Y
				Pos of this bullet
			     C	        AND [DI+2], 7FFFH
			     C	        ADD DI,4
			     C	NOADDL: NOP
			     C	ENDM    ADDBULL
			     C	
			     C	
			     C	; **************************************
			     C	; **** ADD RIGHT BULLET FUNCTION ********
			     C	; * Increments count, calls INITBUL, sets bulTy
				pe bit - MSB of XPos - and MOVES DI 
			     C	; * USES : AX, BX, CX, DX, SI, DI
			     C	; * PARAMS : DI => *First_Empty_Byte
			     C	; ****************************************
			     C	ADDBULR MACRO
			     C	        LOCAL NOADDR
			     C	        CMP [DI],0FEFEH  ; Reached the end of t
				he array then no drawing
			     C	        JE  NOADDR
			     C	        MOV CX,sh2p2fx
			     C	        MOV DX,sh2p2fy
			     C	        SUB CX,buW
			     C	        DEC CX
			     C	        ADD DX,2
			     C	        CMP p2_bulls,25D      ; If the bullet c
				ount reached the maximum, then no draw
			     C	        JE  NOADDR
			     C	        INC p2_bulls         ; Passed all check
				s !! Which means we can draw right bullet
			     C	        INITBUL
			     C	        ; This is equivalent to a binary with a
				ll Zeros except the MSB and this sets the type 
				to Right
Microsoft (R) Macro Assembler Version 5.10                  12/22/19 22:44:1
                                                             Page     1-4


			     C	        ; I then store it in the first bit of Y
				Pos of this bullet
			     C	        OR  [DI+2], 8000H
			     C	        ADD DI,4        ; Move the array storag
				e pointer
			     C	NOADDR: NOP
			     C	ENDM ADDBULR 
			     C	
			     C	
			     C	;****************************************
			     C	; **** INITIALIZE BULLET MACRO ****
			     C	; * Also stores positions in memory 
			     C	; * Please note it's the same for R and L Bulle
				t, so you have to be careful when passing CX an
				d DX so as to get the right position
			     C	; * USES : CX , DX, SI, AL, AH
			     C	; * PARAMS : X_START => CX, Y_START => DX, DI =
				> *First_Empty_Byte
			     C	; ;****************************************
			     C	INITBUL MACRO
			     C	        LOCAL DRW_L
			     C	        MOV [DI], CX    ; Stores X position
			     C	        MOV [DI+2], DX    ; Stores Y position
			     C	        MOV SI,CX
			     C	        ADD SI,buW
			     C	DRW_L:  DRWPX 0FH     ;DRAW PIXEL ON LINE ONE
			     C	        INC DX              ;GO DOWN A LINE
			     C	        DRWPX 0FH     ;DRAW PIXEL ON LINE TWO
			     C	        INC DX              ;GO DOWN A LINE
			     C	        DRWPX 0FH     ;DRAW PIXEL ON LINE TWO
			     C	        SUB DX,2
			     C	        INC CX              
			     C	        CMP CX,SI
			     C	        JNE DRW_L
			     C	ENDM    INITBUL
				INCLUDE refl.inc
			     C	;  MVREFL - Moves the reflector after checking 
				its position
			     C	MVREFL MACRO
			     C	        MOV REFCTR, REFSPEED
			     C	        CMP REFflag,0
			     C	        JE  MV_UP
			     C	        REFMVDOWN
			     C	        JMP REF_END_LB
			     C	MV_UP:  REFMVUP
			     C	REF_END_LB: NOP
			     C	ENDM
			     C	
			     C	REFMVDOWN MACRO
			     C	    CMP REFfristY,84D
			     C	    JE INV_UP_DN
			     C	    MOVEDOWN REFfristY,REFLECTORlen,REFfristX,R
				EFendX,BGCOLOR,REFLECTORCOLOR ;MOVE DOWN REFLEC
				TOR "MOVEDOWN" IS A MACRO
Microsoft (R) Macro Assembler Version 5.10                  12/22/19 22:44:1
                                                             Page     1-5


			     C	    JMP DN_OUT_LB
			     C	INV_UP_DN: INVERTREF 
			     C	DN_OUT_LB: NOP
			     C	ENDM REFMVDOWN
			     C	
			     C	REFMVUP MACRO
			     C	    CMP REFfristY,1
			     C	    JE INV_UP_LB
			     C	    MOVEUP REFfristY,REFLECTORlen,REFfristX,REF
				endX,BGCOLOR,REFLECTORCOLOR  ;MOVE UP REFLECTOR
				 "MOVEDOWN" IS A MACRO
			     C	    JMP UP_OUT_LB
			     C	INV_UP_LB: INVERTREF 
			     C	UP_OUT_LB: NOP
			     C	ENDM REFMVUP
			     C	
			     C	INVERTREF MACRO
			     C	    XOR byte ptr REFflag,00000001B
			     C	ENDM INVERTREF
				INCLUDE name.inc
			     C	
			     C			name_Page macro 
			     C			local labn4
			     C			local labn6
			     C			local labn9
			     C			;***********************TO MOVE
				 DATA FROM BUFFER TO OWNER SHIP NAME
			     C			; nameloop:
			     C				NAMEPAGE   ;***********
				******TO TACK NAME OF THE PLAYER SHIP 1
			     C				mov SI,offset BufferDat
				a
			     C				mov DI,offset playershi
				p1
			     C			labn6:
			     C					mov cL,ActualSi
				ze   
			     C					XOR CH,CH
			     C					REP MOVSB;Copie
				s the first ActualSize  BYTE from SI to DI
			     C					mov DI,offset p
				layership1
			     C					MOV AL,ActualSi
				ze
			     C					MOV CHAR1,AL
			     C					SENDMSG
			     C			
			     C			;*************************
			     C			endm name_Page 
			     C			
			     C	
			     C		
			     C		cursor1 macro  ; TO SET CURSOR
			     C			;mov dl, x ; Column
Microsoft (R) Macro Assembler Version 5.10                  12/22/19 22:44:1
                                                             Page     1-6


			     C			;mov dh, y ; Row
			     C			mov bx, 0 ; Page number 0 for g
				raphics modes
			     C			mov ah, 2h
			     C			int 10h 
			     C			
			     C		ENDm cursor1 
			     C		
			     C		cursor1_on macro  ; TO SHOW CURSOR
			     C		   mov  ah, 1
			     C		   mov  cx, 4         ;?¦¦ BIG CURSOR
				.
			     C		   int  10h
			     C		endm cursor1_on 
			     C		
			     C		read1 macro ; TO READ MESSAGE
			     C			mov ah,0AH        ;Read from ke
				yboard
			     C			mov dx,offset MyBuffer         
				         
			     C			int 21h
			     C		
			     C		endm read1 
			     C		
			     C		NAMEPAGE macro   ; THE PAGE TO TAKE NAM
				E
			     C			local ENTERN1
			     C			local ENDNAME
			     C			local endag
			     C			local endag1
			     C			local cont
			     C			ENTERN1:
			     C				PREP_BACKBROUND word_co
				lor
			     C				mov dl, 07H
			     C				mov dh, 6H
			     C				 CURSOR1
			     C				PRINTMESSAGE MESSHIP1
			     C				mov dl, 07H
			     C				mov dh, 0AH
			     C				CURSOR1
			     C				PRINTMESSAGE MES
			     C				mov dl, 0AH
			     C				mov dh, 8H
			     C				CURSOR1
			     C				cursor1_on
			     C				READ1 
			     C				CMP BufferData,'$' ; TO
				 CHECK IF PLAYER ENTER NOTHING .
			     C				JB ENTERN1 
			     C				CMP BufferData,'A' ; TO
				 CHECK THE FIRST CHAR (No digits or special cha
				racters).
			     C				JB ENTERN1
Microsoft (R) Macro Assembler Version 5.10                  12/22/19 22:44:1
                                                             Page     1-7


			     C				CMP BufferData,'Z'
			     C				JBE ENDNAME
			     C				CMP BufferData,'a'
			     C				JB ENTERN1
			     C				CMP BufferData,'z'
			     C				JA ENTERN1
			     C				ENDNAME:
			     C					CMP ActualSize,
				15 ; TO CHECK NAME NOT BIG THAN 15
			     C				JA  ENTERN1
			     C				
			     C			ENDm NAMEPAGE 
			     C			
			     C			
			     C			
			     C			;******************************
				*******
			     C			
			     C			
			     C			
				INCLUDE lib.inc
			     C	;; JUST FIXING AN ERROR OF DOSBOX 
			     C	PUSHA MACRO
			     C	    PUSH AX
			     C	    PUSH BX
			     C	    PUSH CX
			     C	    PUSH DX
			     C	ENDM PUSHA
			     C	
			     C	POPA MACRO
			     C	    POP DX
			     C	    POP CX
			     C	    POP BX
			     C	    POP AX
			     C	ENDM POPA
			     C	
			     C	; PREP_BACKBROUND - Colors the whole background
			     C	; Params : (byte) BGCOLOR - Color code of the b
				ackground 
			     C	PREP_BACKBROUND MACRO BGCOLOR
			     C					MOV AH, 06h    
				; Scroll up function
			     C					XOR AL, AL     
				; Clear entire screen
			     C					XOR CX, CX     
				; Upper left corner CH=row, CL=column
			     C					MOV DX, 184FH  
				; lower right corner DH=row, DL=column
			     C					MOV BH, BGCOLOR
				    ; color
			     C					INT 10H
			     C	ENDM PREP_BACKBROUND
			     C	
			     C	; PRINTMESSAGE - to print message
Microsoft (R) Macro Assembler Version 5.10                  12/22/19 22:44:1
                                                             Page     1-8


			     C	; Params: (byte*) MyMessage - Pointer to the fi
				rst byte of the message
			     C	PRINTMESSAGE MACRO MyMessage           ; to pri
				nt message
			     C	                mov ah,9h
			     C	                mov dx,offset MyMessage
			     C	                int 21h 
			     C	                
			     C	ENDM PRINTMESSAGE 
			     C	
			     C	; MOVE_CURSOR - macro to determine the location
				 to write
			     C	; Params:   (byte) X - coloumn number
			     C	;           (byte) Y - row number
			     C	;           (byte) page_num - Page number (0 fo
				r graphics modes)
			     C	MOVE_CURSOR MACRO X,Y,page_num
			     C		    mov dl, x ; Column
			     C			mov dh, y ; Row
			     C			mov bx, 0 ; Page number 0 for g
				raphics modes
			     C			mov ah, 2h
			     C			int 10h
			     C	ENDM MOVE_CURSOR
			     C	
			     C	; DETERMINE_MODE - Goes to a specific mode
			     C	; Params:   (byte) MODE_NUM - Mode Number accor
				ding to the list of CGA Modes
			     C	;           (byte) page_num - Page number (0 fo
				r graphics modes)
			     C	DETERMINE_MODE MACRO MODE_NUM,PAGE_NUM
			     C				mov ah,0               
				 ;Change video mode (Graphical MODE)
			     C				mov al,MODE_NUM        
				;Max memory size 16KByte
			     C				mov bx,PAGE_NUM
			     C				int 10h
			     C	ENDM DETERMINE_mode
			     C	
			     C	; TOVID - Changes to video mode
			     C	TOVID MACRO
			     C	    ; PUSH AX
			     C	    MOV AH,00H
			     C	    MOV AL,13H
			     C	    INT 10H
			     C	    ; POP AX
			     C	ENDM TOVID
			     C	
			     C	CHECKKEY MACRO
			     C	    MOV AH,01H
			     C	    INT 16H
			     C	ENDM CHECKKEY
			     C	
			     C	
Microsoft (R) Macro Assembler Version 5.10                  12/22/19 22:44:1
                                                             Page     1-9


			     C	; GETKEY - Get key pressed (Wait for a key-AH:s
				cancode,AL:ASCII) 
			     C	GETKEY MACRO 
			     C	    MOV AH,0
			     C	    INT 16H
			     C	ENDM GETKEY
			     C	
			     C	;GETKEY_NOWAIT - Get key pressed without waitin
				g
			     C	GETKEY_NOWAIT MACRO
			     C	    MOV AH,1
			     C	    INT 16H
			     C	    clearkeyboardbuffer
			     C	ENDM GETKEY_NOWAIT
			     C	
			     C	;----------------------------------------------
				----------------------------
			     C	; clears keyboard buffer
			     C	;----------------------------------------------
				----------------------------
			     C	clearkeyboardbuffer MACRO
			     C		push	ax
			     C		mov		ax, 0000h
			     C		mov		es, ax
			     C		mov		es:[041ah], 041eh
			     C		mov		es:[041ch], 041eh
								; Clears keyboa
				rd buffer
			     C		pop		ax
			     C	endm  clearkeyboardbuffer
			     C	
			     C	
			     C	; COMPARE_KEY - Compares a keyboard key Stored 
				in AH with a Given scan code and sets ZF if equ
				al
			     C	; Params: (byte) KSCAN - Scan code for the comp
				ared key  
			     C	COMPARE_KEY MACRO KSCAN
			     C	    CMP AH, KSCAN
			     C	ENDM COMPARE_KEY
			     C	
			     C	; COMPARE_KEY_ASCII - Compares a keyboard key S
				tored in AH with a Given scan code and sets ZF 
				if equal
			     C	; Params: (byte) KASCII - ASCII code for the co
				mpared key  
			     C	COMPARE_KEY_ASCII MACRO KASCII
			     C	    CMP AL, KASCII
			     C	ENDM COMPARE_KEY_ASCII
			     C	
			     C	COMPARE_MSG MACRO MSGASCII
			     C		CMP CHAR2, MSGASCII
			     C	ENDM COMPARE_MSG
			     C	
Microsoft (R) Macro Assembler Version 5.10                  12/22/19 22:44:1
                                                             Page     1-10


			     C	; DRWPX - Draw a pixel at X,Y with color C
			     C	DRWPX MACRO C
			     C	    MOV AL,C
			     C	    MOV AH,0CH
			     C	    INT 10H
			     C	ENDM DRWPX
			     C	
			     C	;DELAY
			     C	DELAY MACRO
			     C			LOCAL LABELD1
			     C	       mov bh,05h ; sec num
			     C			mov ah,2ch
			     C			int 21h
			     C			mov [di],dh
			     C			labeld1:
			     C				int 21h
			     C				sub dh,[di]
			     C				cmp dh,bh
			     C			jb labeld1
			     C	ENDM DELAY
			     C	
			     C	; CALL_PROC_IF_EQUAL - Calls a certain procedur
				e if the ZF is set
			     C	; Params: PROCEDURE => (proc) Proc. to call
			     C	CALL_PROC_IF_EQUAL   MACRO    PROCEDURE
			     C	        LOCAL OUT_LP
			     C	        JNZ OUT_LP
			     C	        CALL PROCEDURE
			     C	OUT_LP: NOP
			     C	ENDM CALL_PROC_IF_EQUAL
			     C	
			     C	; CALL_MACRO_IF_EQUAL - Calls a certain Macro i
				f the ZF is set
			     C	; Params: MACROLBL => (MACRO) Macro to call
			     C	CALL_MACRO_IF_EQUAL MACRO MACROLBL
			     C	        LOCAL OUT_LP
			     C	        JNZ OUT_LP
			     C	        MACROLBL
			     C	OUT_LP: NOP
			     C	ENDM CALL_MACRO_IF_EQUAL
			     C	
			     C	; drow_thick_line - Draw a thick line
			     C	; Params:   xf - first x,
			     C	;           xe - end x,
			     C	;           ysize - length,
			     C	;           yf - first y,color
			     C	drow_thick_line MACRO XF,XE,YF,YSIZE,COLOR
			     C	        LOCAL BACK
			     C	        LOCAL label1
			     C	        mov cx,XF
			     C	        label1: 
			     C	            mov DX, YF
			     C	            mov Bl,YSIZE
			     C	            mov al,color ;Pixel color
Microsoft (R) Macro Assembler Version 5.10                  12/22/19 22:44:1
                                                             Page     1-11


			     C	            mov ah,0ch ;Draw Pixel Command
			     C	            back:     
			     C	                int 10h
			     C	                add DX,1
			     C	                dec bl	
			     C	            jnz back
			     C	            inc cx
			     C	            cmp cx,XE
			     C	        jnz label1
			     C	
			     C	ENDM drow_thick_line  
			     C	
			     C	; MOVEUP - Moves a line vertically upward and u
				pdates its data
			     C	; Uses : AX
			     C	; Params:   LINEFY - YPos of Line's top
			     C	;           LENGTH - Length of the line
			     C	;           LINEFX - XPos of Line's top
			     C	;           LINEendX - XPos of Line's bottom
			     C	;           BGCOLOR - Background color
			     C	;           LINECOLOR - Color of the color
			     C	MOVEUP MACRO LINEFY,LENGTH,LINEFX,LINEendX,BGCO
				LOR,LINECOLOR ; macro to move line up "BGCOLOR"
				 is aback ground color
			     C				mov ax,LINEFY
			     C				ADD AX,LENGTH-1
			     C				DROWROW  LINEFX,LINEend
				X,AX,BGCOLOR
			     C				mov ax,LINEFY
			     C				sub ax,1
			     C				mov LINEFY,ax
			     C				DROWROW  LINEFX,LINEend
				X,LINEFY,LINECOLOR			
			     C	ENDM MOVEUP
			     C	
			     C	MOVEDOWN MACRO LINEFY,LENGTH,LINEFX,LINEendX,BG
				COLOR,LINECOLOR ; macro to move line down "BGCO
				LOR" is aback ground color
			     C				DROWROW  LINEFX,LINEend
				X,LINEFY,bgcolor
			     C				mov ax, LINEFY
			     C				inc ax
			     C				mov LINEFY,AX
			     C				ADD AX,LENGTH-1
			     C				DROWROW  LINEFX,LINEend
				X,AX,LINECOLOR			
			     C	ENDM MOVEDOWN     
			     C	
			     C	DROWrow MACRO XF,XE,Y,COLOR  ;this a macro to d
				raw one row with frist x "XF" ,end x "XE",y ,co
				lor
			     C				LOCAL LAB
			     C				MOV CX,XF
			     C				MOV DX,Y
Microsoft (R) Macro Assembler Version 5.10                  12/22/19 22:44:1
                                                             Page     1-12


			     C				mov al,color ;Pixel col
				or
			     C				mov ah,0ch ;Draw Pixel 
				Command
			     C				LAB:
			     C				 INT 10H
			     C				 INC CX
			     C				CMP CX,XE
			     C				JNZ LAB
			     C	ENDM DROWrow  
			     C	
			     C	; PAUSE - Exits out if f1
			     C	PAUSE MACRO
			     C	        LOCAL OUT_LP
			     C	        LOCAL PAUSE_LP
			     C			LOCAL CHECK_IF_MSG_IS_F1
			     C	PAUSE_LP:
			     C	        CHECKKEY
			     C			JZ CHECK_IF_MSG_IS_F1
			     C			GETKEY
			     C	        COMPARE_KEY 03BH
			     C	        JNE CHECK_IF_MSG_IS_F1
			     C			MOV CHAR1, 0FFH 
			     C			SENDMSG
			     C			JMP OUT_LP
			     C	CHECK_IF_MSG_IS_F1:
			     C			RECMSG
			     C			COMPARE_MSG 0
			     C			JZ PAUSE_LP
			     C			COMPARE_MSG 0FFH
			     C	        JNE PAUSE_LP
			     C	OUT_LP:
			     C			XOR AX,AX
			     C	ENDM PAUSE
			     C	
			     C	HALT MACRO
			     C	        MOV AH,4CH
			     C	        INT 21H
			     C	ENDM HALT
			     C	
			     C	read macro 
			     C	
			     C			mov ah,0AH        ;Read from ke
				yboard
			     C			mov dx,MyBuffer               
			     C			int 21h
			     C			
			     C	endm read
			     C	
			     C	cursor_on macro  ; TO SHOW CURSOR
			     C		   mov  ah, 1
			     C		   mov  cx, 4         ;?¦¦ BIG CURSOR
				.
			     C		   int  10h
Microsoft (R) Macro Assembler Version 5.10                  12/22/19 22:44:1
                                                             Page     1-13


			     C	endm	cursor_on 
			     C	
			     C	
			     C	DROWPRE_POWERUP MACRO
			     C					LOCAL LABPROWER
				1
			     C					local go_to_dro
				w
			     C					PUSHA
			     C					PUSH SI
			     C					PUSH DI
			     C					XOR byte ptr PO
				WERUP_XFLAG ,00000001B
			     C					mov al,POWERUP_
				color
			     C					ADD AX,1
			     C					MOV POWERUP_col
				or,AL
			     C					cmp POWERUP_col
				or,5
			     C					jnz go_to_drow
			     C					mov POWERUP_col
				or,1
			     C					go_to_drow :
			     C					RANDOM0_1 30H
			     C					MOV BX,POWERUP_
				fy
			     C					ADD BX,AX
			     C					CMP BX,POWERUP_
				MAXY 
			     C					JB LABPROWER1
			     C					MOV BX,11H
			     C				LABPROWER1:
			     C					MOV POWERUP_fy,
				BX
			     C					drow_thick_line
				 POWERUPR_fx,POWERUPR_ex,POWERUP_fy,POWERUP_LEN
				,POWERUP_coloR
			     C					drow_thick_line
				 POWERUPL_fx,POWERUPL_ex,POWERUP_fy,POWERUP_LEN
				,POWERUP_coloR
			     C					MOV POWERUP_L_I
				S_DRAWN,1
			     C					MOV POWERUP_R_I
				S_DRAWN,1
			     C					MOV POWERUP_COU
				NTER,POWERUP_TODELETE
			     C					MOV POWERUP_ON,
				1
			     C					POP DI
			     C					POP SI
			     C					POPA
			     C	ENDM DROWPRE_POWERUP
			     C	
Microsoft (R) Macro Assembler Version 5.10                  12/22/19 22:44:1
                                                             Page     1-14


			     C	DELETEP_POWERUP MACRO
			     C					LOCAL FIND_IF_P
				OWERUP_R_IS_DRAWN
			     C					LOCAL NO_POWERU
				PS_ARE_DRAWN
			     C					PUSHA
			     C					PUSH SI
			     C					PUSH DI
			     C					CMP POWERUP_L_I
				S_DRAWN,1
			     C					JNZ FIND_IF_POW
				ERUP_R_IS_DRAWN
			     C					drow_thick_line
				 POWERUPL_fx,POWERUPL_ex,POWERUP_fy,POWERUP_LEN
				,00H
			     C					MOV POWERUP_L_I
				S_DRAWN,0
			     C	FIND_IF_POWERUP_R_IS_DRAWN:
			     C					CMP POWERUP_R_I
				S_DRAWN,1
			     C					JNZ NO_POWERUPS
				_ARE_DRAWN
			     C					drow_thick_line
				 POWERUPR_fx,POWERUPR_ex,POWERUP_fy,POWERUP_LEN
				,00H
			     C					MOV POWERUP_R_I
				S_DRAWN,0
			     C	NO_POWERUPS_ARE_DRAWN:
			     C					MOV POWERUP_COU
				NTER,POWERUP_TODROW
			     C					MOV POWERUP_ON,
				0
			     C					POP DI
			     C					POP SI
			     C					POPA
			     C	ENDM DELETEP_POWERUP
			     C	
			     C	DELETE_POWERUP_ONLY MACRO
			     C		LOCAL DELETE_RIGHT_POWERUP
			     C		LOCAL OUT_DELETE_POWERUP_ONLY
			     C		PUSHA
			     C		PUSH SI
			     C		PUSH DI
			     C		CMP POWERUP_XFLAG,0
			     C		JNZ DELETE_RIGHT_POWERUP
			     C		drow_thick_line POWERUPL_fx,POWERUPL_ex
				,POWERUP_fy,POWERUP_LEN,00H
			     C		MOV POWERUP_L_IS_DRAWN,0
			     C		JMP OUT_DELETE_POWERUP_ONLY
			     C	DELETE_RIGHT_POWERUP:
			     C		drow_thick_line POWERUPR_fx,POWERUPR_ex
				,POWERUP_fy,POWERUP_LEN,00H
			     C		MOV POWERUP_R_IS_DRAWN,0
			     C	OUT_DELETE_POWERUP_ONLY:
Microsoft (R) Macro Assembler Version 5.10                  12/22/19 22:44:1
                                                             Page     1-15


			     C		POP DI
			     C		POP SI
			     C		POPA
			     C	ENDM DELETE_POWERUP_ONLY
			     C	
			     C	
			     C	
			     C	DROWPRE_ROCKET MACRO
			     C					LOCAL LABROCKET
			     C					LOCAL DROW__LEF
				T
			     C					LOCAL END_DROW_
				ROCKET
			     C					local go_to_dro
				w1
			     C					PUSHA
			     C					PUSH SI
			     C					PUSH DI
			     C					CMP GAME_LEVEL 
				,2
			     C					JNZ ROCKET_ONEL
				Y
			     C					mov al,rocket_c
				olor
			     C					ADD AX,1
			     C					MOV rocket_colo
				r,AL
			     C					cmp rocket_colo
				r,0eh
			     C					jnz go_to_drow1
			     C					mov rocket_colo
				r,0ch
			     C					go_to_drow1 :
			     C			ROCKET_ONELY:
			     C					XOR byte ptr RO
				CKET_XFLAG ,00000001B
			     C					RANDOM0_1 30H
			     C					ADD AX,07H
			     C					MOV BX,ROCKET_f
				y
			     C					ADD BX,AX
			     C					CMP BX,ROCKET_M
				AXY 
			     C					JB LABROCKET
			     C						MOV BX,
				11H
			     C					LABROCKET:
			     C						MOV ROC
				KET_fy,BX
			     C						drow_th
				ick_line ROCKETR_fx,ROCKETR_ex,ROCKET_fy,ROCKET
				_LEN,ROCKET_coloR
			     C						drow_th
				ick_line ROCKETL_fx,ROCKETL_ex,ROCKET_fy,ROCKET
Microsoft (R) Macro Assembler Version 5.10                  12/22/19 22:44:1
                                                             Page     1-16


				_LEN,ROCKET_coloR
			     C						MOV ROC
				K_L_IS_DRAWN,1
			     C						MOV ROC
				K_R_IS_DRAWN,1
			     C					END_DROW_ROCKET
				:
			     C						MOV ROC
				KET_COUNTER,ROCKET_TODELETE
			     C						MOV ROC
				KET_ON,1
			     C						POP DI
			     C						POP SI
			     C						POPA
			     C	ENDM DROWPRE_ROCKET
			     C	
			     C	DELETEP_ROCKET MACRO
			     C					LOCAL FIND_IF_R
				OCK_R_IS_DRAWN
			     C					LOCAL NO_ROCKS_
				ARE_DRAWN	 
			     C					PUSHA
			     C					PUSH SI
			     C					PUSH DI
			     C					CMP ROCK_L_IS_D
				RAWN,0
			     C					JZ FIND_IF_ROCK
				_R_IS_DRAWN
			     C					drow_thick_line
				 ROCKETL_fx,ROCKETL_ex,ROCKET_fy,ROCKET_LEN,00H
			     C	FIND_IF_ROCK_R_IS_DRAWN:
			     C					CMP ROCK_R_IS_D
				RAWN,0
			     C					JZ NO_ROCKS_ARE
				_DRAWN
			     C					drow_thick_line
				 ROCKETR_fx,ROCKETR_ex,ROCKET_fy,ROCKET_LEN,00H
			     C	NO_ROCKS_ARE_DRAWN:
			     C					MOV ROCKET_COUN
				TER,ROCKET_TODROW
			     C					MOV ROCKET_ON,0
			     C					POP DI
			     C					POP SI
			     C					POPA
			     C	ENDM DELETEP_ROCKET
			     C	
			     C	DELETE_ROCK_ONLY MACRO
			     C		LOCAL DELETE_RIGHT_ROCK
			     C		LOCAL OUT_DELETE
			     C		PUSHA
			     C		PUSH SI
			     C		PUSH DI
			     C		CMP ROCKET_XFLAG,0
			     C		JNZ DELETE_RIGHT_ROCK
Microsoft (R) Macro Assembler Version 5.10                  12/22/19 22:44:1
                                                             Page     1-17


			     C		drow_thick_line ROCKETL_fx,ROCKETL_ex,R
				OCKET_fy,ROCKET_LEN,00H
			     C		MOV ROCK_L_IS_DRAWN,0
			     C		JMP OUT_DELETE
			     C	DELETE_RIGHT_ROCK:
			     C		drow_thick_line ROCKETR_fx,ROCKETR_ex,R
				OCKET_fy,ROCKET_LEN,00H
			     C		MOV ROCK_R_IS_DRAWN,0
			     C	OUT_DELETE:
			     C		POP DI
			     C		POP SI
			     C		POPA
			     C	ENDM DELETE_ROCK_ONLY
			     C	
			     C	RANDOM0_1 MACRO NUM
			     C			; mov ax,0FFH            ; Use 
				lower 16 bits (in DX) for random value
			     C	
			     C			xor dx,dx            ; Compute 
				randval(DX) mod 10 to get num
			     C			mov bx,NUM            ;     bet
				ween 0 and 9
			     C			div bx               ; Divide d
				x:ax by bx
			     C						
						; DX = modulo from division ( 0
				 to 9)
			     C	        MOV Ax,DX  
			     C			
			     C	ENDM RANDOM0_1
				INCLUDE chatlib.inc
			     C	CHAT_MODE1 MACRO
			     C			LOCAL MAIN_LP
			     C			LOCAL DONT_EXIT
			     C			LOCAL CHECK_BACKSPACE1_LB
			     C			LOCAL PRINT_CHAR_1
			     C			LOCAL SEND_THEN_END
			     C			LOCAL END_CHAT_TRANSIT
			     C			LOCAL CURE_JUMP_OUT_OF_RANGE
			     C			LOCAL SEND_LB
			     C			LOCAL START_RECIEVE
			     C			LOCAL CHECK_BACKSPACE2_LB
			     C			LOCAL PRINT_CHAR_2
			     C			LOCAL END_CHAT
			     C				CONFIG
			     C		        CLRS
			     C	         DRWLINECENTER
			     C			 MOVE_CURSOR 0,12,0 
			     C			PRINTMESSAGE playership1
			     C			MOVE_CURSOR 0,24,0 
			     C			PRINTMESSAGE playership2
			     C	        SETCURSOR 0,CURSOR1_Y
			     C	MAIN_LP:
			     C	        SETCURSOR CURSOR1_CUR_X,CURSOR1_Y
Microsoft (R) Macro Assembler Version 5.10                  12/22/19 22:44:1
                                                             Page     1-18


			     C	        CHECKKEY
			     C	        JZ START_RECIEVE        ; Means that th
				e sender didn't press any key so go to recieve
			     C	        GETKEY1                 ; If the user c
				licked a button so we get it and store it in CH
				AR1
			     C	        COMPARE_KEY 3DH        ; If ESC is clic
				ked, Send it then end the program 
			     C	        JZ SEND_THEN_END
			     C	DONT_EXIT:
			     C	        COMPARE_KEY_ASCII 0DH             ; ASC
				II of ENTER
			     C	        JNZ CHECK_BACKSPACE1_LB     ; If not, g
				o check BACKSPACE
			     C	        SCROLLUP1                   ; If ENTER,
				 Scroll one line up
			     C	        MOV CURSOR1_CUR_X,0         ; Reset cur
				sor1_cur_x which holds the current cursor posit
				ion of sender
			     C	        SETCURSOR CURSOR1_CUR_X,CURSOR1_Y ; Res
				et the cursor to the left  of the screen
			     C	        JMP SEND_LB
			     C	CHECK_BACKSPACE1_LB:
			     C	        COMPARE_KEY_ASCII 08H         ; ASCII o
				f backspace
			     C	        JNZ PRINT_CHAR_1        ; If not, then 
				it's a character, go print it ! 
			     C	         HANDLEBS1          ; If yes, Call the 
				function that handles BS for sender
			     C	        JMP SEND_LB
			     C	PRINT_CHAR_1:
			     C	        SETCURSOR CURSOR1_CUR_X,CURSOR1_Y   ; S
				et the cursor to the proper printing position
			     C	         PRTCHAR1                       ; Print
				 the entered character in this position
			     C	        JMP SEND_LB                         
			     C	
			     C	SEND_THEN_END:
			     C			MOV CHAR1,0FFH
			     C	         SENDMSG        ; We come here in case 
				of ESC so as to send it to the reciever before 
				exit
			     C	END_CHAT_TRANSIT:           ; Dummy branch for 
				resolving jump out of range issue, Ends the pro
				gram
			     C	        JMP END_CHAT        
			     C	CURE_JUMP_OUT_OF_RANGE:     ; Dummy branch for 
				resolving jump out of range issue, Returns to t
				he start of the loop
			     C	        JMP MAIN_LP
			     C	
			     C	SEND_LB:                        
			     C	        SENDMSG                         ; Funct
				ion to send CHAR1 to the reciever 
Microsoft (R) Macro Assembler Version 5.10                  12/22/19 22:44:1
                                                             Page     1-19


			     C	START_RECIEVE:
			     C	         RECMSG                         ; Funct
				ion to recieve a byte, stores ASCII in AH, if n
				othing is set, it puts CHAR2=0
			     C	        CMP CHAR2,0                     ; Means
				 nothing to recieve
			     C	        JZ CURE_JUMP_OUT_OF_RANGE       ; Go to
				 the top of the loop
			     C	        COMPARE_KEY_ASCII 0FFH          ; If ES
				C is clicked, end the program 
			     C	        JZ END_CHAT
			     C	        COMPARE_KEY_ASCII 0DH       ; ASCII for
				 ENTER
			     C	        JNZ CHECK_BACKSPACE2_LB     ; If not EN
				TER, go check BS
			     C	        SCROLLUP2                   ; Scroll th
				e bottom screen up 1 line
			     C	        MOV CURSOR2_CUR_X,0         ; Reset CUR
				SOR2_CUR_X 
			     C	        JMP CURE_JUMP_OUT_OF_RANGE  ; Go to the
				 top of the loop
			     C	CHECK_BACKSPACE2_LB:
			     C	        COMPARE_KEY_ASCII 08H               ; A
				SCII of BS
			     C	        JNZ PRINT_CHAR_2                    ; I
				f not, then it's a character, go print it ! 
			     C	        HANDLEBS2                           ; I
				f yes, Call the function that handles BS for re
				ciever
			     C	        JMP CURE_JUMP_OUT_OF_RANGE          ; G
				o to the top of the loop
			     C	PRINT_CHAR_2:
			     C	        SETCURSOR CURSOR2_CUR_X,CURSOR2_Y   ; S
				et the cursor to the proper printing position
			     C	         PRTCHAR2                           ; P
				rint the entered character in this position
			     C	        JMP CURE_JUMP_OUT_OF_RANGE          ; G
				o to the top of the loop
			     C	        PAUSE1
			     C	END_CHAT:
			     C			MOV CHAT_FLAG1,0
			     C			MOV CHAT_FLAG2,0
			     C			mov CURSOR1_CUR_X , 0
			     C			mov CURSOR2_CUR_X , 0
			     C	ENDM CHAT
			     C	
			     C	CONFIG MACRO
			     C	    ; Access the control bit
			     C	    MOV DX, 03FBH
			     C	    MOV AL,80H
			     C	    OUT DX,AL
			     C	    ; Set the divisor LSB
			     C	    MOV DX,3F8H			
			     C	    MOV AL,0CH			
Microsoft (R) Macro Assembler Version 5.10                  12/22/19 22:44:1
                                                             Page     1-20


			     C	    OUT DX,AL
			     C	    ; Set the divisor MSB
			     C	    MOV DX,3F9H			
			     C	    MOV AL,00H			
			     C	    OUT DX,AL
			     C	    ; Set port config
			     C	    ; d7:Access to Receiver buffer, Transmitter
				 buffer
			     C	    ; d6:Set Break disabled
			     C	    ; d5d4d3:Even Parity
			     C	    ; d2:One Stop Bit
			     C	    ; d1d0:8bits
			     C	    MOV DX,3FBH
			     C	    MOV AL, 00011011B
			     C	    OUT DX,AL
			     C	
			     C	ENDM CONFIG 
			     C	
			     C	SENDMSG MACRO
			     C		LOCAL AGAINC
			     C		LOCAL OUT_LB1
			     C	    CMP CHAR1,0
			     C	    JZ OUT_LB1
			     C	    MOV DX,03FDH
			     C	AGAINC: 
			     C	    IN AL,DX            ; Line status register
			     C	    TEST AL,00100000B   ; Means NOT EMPTY
			     C	    JZ AGAINC
			     C	    MOV DX,3F8H         ; If empty, send CHAR1
			     C	    MOV AL,CHAR1
			     C	    OUT DX,AL
			     C	OUT_LB1:
			     C	    
			     C	ENDM SENDMSG 
			     C	
			     C	RECMSG  MACRO
			     C			LOCAL CHK
			     C			LOCAL RECEIVE_LB
			     C			LOCAL OUT_LB2
			     C	    MOV DX,03FDH    ; Check data is ready
			     C	CHK:
			     C	    IN AL,DX        
			     C	    TEST AL,1       ; Means READY
			     C	    JNZ RECEIVE_LB
			     C	    MOV CHAR2,0
			     C	    JMP OUT_LB2
			     C	RECEIVE_LB:
			     C	    MOV DX,03F8H    ; If ready, recieve
			     C	    IN AL,DX
			     C	    MOV CHAR2,AL    ; Save the recieved char in
				 CHAR2           
			     C	OUT_LB2:
			     C	                
			     C	ENDM RECMSG 
Microsoft (R) Macro Assembler Version 5.10                  12/22/19 22:44:1
                                                             Page     1-21


			     C	
			     C	PRTCHAR1 MACRO
			     C			LOCAL INC_CURSOR1_X
			     C			LOCAL END_UPDATE_CURSOR1
			     C	    PRTCHAR 1,CHAR1,0AH
			     C	    GETCURSOR
			     C	    INC DL
			     C	    CMP DL, 80D
			     C	    JNZ INC_CURSOR1_X
			     C	    SCROLLUP1
			     C	    MOV CURSOR1_CUR_X,0
			     C	    JMP END_UPDATE_CURSOR1
			     C	INC_CURSOR1_X:
			     C	    MOV CURSOR1_CUR_X,DL
			     C	END_UPDATE_CURSOR1:
			     C	    
			     C	ENDM PRTCHAR1
			     C	
			     C	PRTCHAR2 MACRO
			     C			LOCAL INC_CURSOR2_X
			     C			LOCAL END_UPDATE_CURSOR2
			     C	    PRTCHAR 1,CHAR2,0BH
			     C	    GETCURSOR
			     C	    INC DL
			     C	    CMP DL, 80D
			     C	    JNZ INC_CURSOR2_X
			     C	    SCROLLUP2
			     C	    MOV CURSOR2_CUR_X,0
			     C	    JMP END_UPDATE_CURSOR2
			     C	INC_CURSOR2_X:
			     C	    MOV CURSOR2_CUR_X,DL
			     C	END_UPDATE_CURSOR2:
			     C	    
			     C	ENDM PRTCHAR2 
			     C	
			     C	DRWLINECENTER MACRO
			     C	    SETCURSOR 0,13D
			     C	    PRTCHAR 80,"=",0FH
			     C	    
			     C	ENDM DRWLINECENTER 
			     C	 
			     C	
			     C	HANDLEBS1   MACRO
			     C				LOCAL NO_SCROLL_DOWN1
			     C				LOCAL END_HANDLEBS1
			     C				
			     C		  CMP CURSOR1_CUR_X, 0    ; If BACKSPAC
				E, see if the cursor ia already at the left of 
				the screen i.e. empty line
			     C	    JNZ NO_SCROLL_DOWN1
			     C	    SCROLLDOWN1
			     C	    MOV CURSOR1_CUR_X, 80D
			     C	    SETCURSOR CURSOR1_CUR_X, CURSOR1_Y
			     C	    JMP END_HANDLEBS1
Microsoft (R) Macro Assembler Version 5.10                  12/22/19 22:44:1
                                                             Page     1-22


			     C	NO_SCROLL_DOWN1:
			     C	    DEC CURSOR1_CUR_X
			     C	    SETCURSOR CURSOR1_CUR_X,CURSOR1_Y
			     C	    PRTCHAR 1,' ',0FH
			     C	
			     C	END_HANDLEBS1:
			     C	    
			     C	ENDM HANDLEBS1 
			     C	
			     C	HANDLEBS2   MACRO
			     C				LOCAL NO_SCROLL_DOWN2
			     C				LOCAL END_HANDLEBS2
			     C	    CMP CURSOR2_CUR_X, 0    ; If BACKSPACE, see
				 if the cursor ia already at the left of the sc
				reen i.e. empty line
			     C	    JNZ NO_SCROLL_DOWN2
			     C	    SCROLLDOWN2
			     C	    MOV CURSOR2_CUR_X, 80D
			     C	    SETCURSOR CURSOR2_CUR_X, CURSOR2_Y
			     C	    JMP END_HANDLEBS2
			     C	NO_SCROLL_DOWN2:
			     C	    DEC CURSOR2_CUR_X
			     C	    SETCURSOR CURSOR2_CUR_X,CURSOR2_Y
			     C	    PRTCHAR 1,' ',0FH
			     C	END_HANDLEBS2:
			     C	    
			     C	ENDM HANDLEBS2 
			     C	
			     C	
			     C	; GETCURSOR - Get cursor pos., X=>DL & Y=>DH
			     C	GETCURSOR MACRO
			     C	    MOV AH,03H
			     C	    MOV BH,00H
			     C	    INT 10H
			     C	ENDM GETCURSOR
			     C	
			     C	; SETCURSOR - Set cursor X and Y
			     C	; Params: X,Y 
			     C	SETCURSOR MACRO X,Y
			     C	    MOV AH,02H
			     C	    MOV BH,00H
			     C	    MOV DL,X
			     C	    MOV DH,Y
			     C	    INT 10H
			     C	ENDM SETCURSOR
			     C	
			     C	CHECKKEY MACRO
			     C	    MOV AH,01H
			     C	    INT 16H
			     C	ENDM CHECKKEY
			     C	
			     C	
			     C	; GETKEY - Get key pressed (Wait for a key-AH:s
				cancode,AL:ASCII) 
Microsoft (R) Macro Assembler Version 5.10                  12/22/19 22:44:1
                                                             Page     1-23


			     C	GETKEY1 MACRO
			     C	    GETKEY
			     C	    MOV CHAR1,AL
			     C	ENDM GETKEY
			     C	; GETKEY - Get key pressed (Wait for a key-AH:s
				cancode,AL:ASCII) 
			     C	GETKEY2 MACRO 
			     C	    GETKEY
			     C	    MOV CHAR2,AL
			     C	ENDM GETKEY
			     C	
			     C	
			     C	
			     C	; PRTCHAR - Print a char with a color
			     C	PRTCHAR MACRO NTIMES, CHAR_ASCII, COLOR 
			     C	    MOV AH,09H
			     C	    MOV BH,0
			     C	    MOV AL,CHAR_ASCII
			     C	    MOV CX,NTIMES ; No of times
			     C	    MOV BL,COLOR
			     C	    INT 10H
			     C	ENDM PRTCHAR
			     C	
			     C	; PRINTMSG - Print message 
			     C	; Params: MSG - (byte[]1) message to print
			     C	PRINTMSG MACRO MSG
			     C	    MOV AX,09H
			     C	    MOV DX,offset MSG
			     C	    INT 21H
			     C	ENDM PRINTMSG
			     C	
			     C	 
			     C	
			     C	; SCROLL: Scroll up no of lines in a specific w
				indow
			     C	; Params:   NLINES - no. of lines
			     C	;           X1 - x of upper left corner
			     C	;           Y1 - y of upper left corner
			     C	;           X2 - x of lower right corner
			     C	;           Y2 - y of lower right corner
			     C	; USES : AX,BX,CX,DX
			     C	SCROLL MACRO NLINES,X1,Y1,X2,Y2 
			     C	    MOV AH,06H
			     C	    MOV AL,NLINES
			     C	    MOV BH,07H  ; Normal video attribute
			     C	    MOV CH,Y1
			     C	    MOV CL,X1
			     C	    MOV DH,Y2
			     C	    MOV DL,X2
			     C	    INT 10H
			     C	ENDM SCROLL
			     C	
			     C	; SCROLLDOWN: Scroll down no of lines in a spec
				ific window
Microsoft (R) Macro Assembler Version 5.10                  12/22/19 22:44:1
                                                             Page     1-24


			     C	; Params:   NLINES - no. of lines
			     C	;           X1 - x of upper left corner
			     C	;           Y1 - y of upper left corner
			     C	;           X2 - x of lower right corner
			     C	;           Y2 - y of lower right corner
			     C	; USES : AX,BX,CX,DX
			     C	SCROLLDOWN MACRO NLINES,X1,Y1,X2,Y2 
			     C	    MOV AH,07H
			     C	    MOV AL,NLINES
			     C	    MOV BH,07H  ; Normal video attribute
			     C	    MOV CH,Y1
			     C	    MOV CL,X1
			     C	    MOV DH,Y2
			     C	    MOV DL,X2
			     C	    INT 10H
			     C	ENDM SCROLLDOWN
			     C	
			     C	
			     C	SCROLLUP1 MACRO
			     C	    SCROLL 1,0,0,79D,11D
			     C	ENDM SCROLLUP1
			     C	
			     C	SCROLLUP2 MACRO
			     C	    SCROLL 1,0,14D,79D,23D
			     C	ENDM SCROLLUP2
			     C	
			     C	SCROLLDOWN1 MACRO
			     C	    SCROLLDOWN 1,0,0,79D,11D
			     C	ENDM SCROLLDOWN1
			     C	
			     C	SCROLLDOWN2 MACRO
			     C	    SCROLLDOWN 1,0,14D,79D,23D
			     C	ENDM SCROLLDOWN2
			     C	
			     C	
			     C	CLRS MACRO
			     C	    MOV AX,0600H
			     C	    MOV BH,07H
			     C	    MOV CX,0
			     C	    MOV DX,184FH
			     C	    INT 10H
			     C	ENDM CLRS
			     C	
			     C	PAUSE1 MACRO
			     C	LB: JMP LB
			     C	ENDM PAUSE1
				
				
					.MODEL SMALL
					.386
				        .STACK 64
				        .DATA 
				;CHAT_GET_USER_INP
				;**********************************************
Microsoft (R) Macro Assembler Version 5.10                  12/22/19 22:44:1
                                                             Page     1-25


				***
 = 000B						CURSOR1_Y EQU 11D
 = 0017						CURSOR2_Y EQU 23D
 0000  00					CURSOR1_CUR_X DB 0
 0001  00					CURSOR2_CUR_X DB 0
 0002  00					CHAR1   DB  0
 0003  00					CHAR2   DB  0
 0004  00					CHAT_FLAG1 DB 0
 0005  00					CHAT_FLAG2 DB 0
 0006  00					game_flag1 db 0
 0007  00					game_flag2 db 0
 0008  00					GAME_LEVEL DB 0
 0009  00					SEND_INVITATION DB 0
				;name page
				;**********************************************
				******
 000A  000F[					playership1 db 15 dup('$'),'$' 
				; NAME OF PLAYER SHIP 1
	   24			
			 ]	
       24			
						;playership2 DB 15 DUP('$'),'$'
				 ; NAME OF PLAYER SHIP 2
 001A  41 4C 49 24				PLAYERSHIP2 DB "ALI",'$'
 001E  50 72 65 73 73 20			MES         DB 'Press enter to 
				continue $','$'
       65 6E 74 65 72 20	
       74 6F 20 63 6F 6E	
       74 69 6E 75 65 20	
       24 24			
 0038  50 6C 65 61 73 65			MESSHIP1    DB 'Please Enter th
				e name $','$'
       20 45 6E 74 65 72	
       20 74 68 65 20 6E	
       61 6D 65 20 24 24	
 0050  01					SCN         DB 1  ; TO DETERMIN
				E NAME PAGE TO PLAYER SHIP 1 '1'OR SHIP 2 '2'
 = 000F						word_color equ 0fh	
 0051  00					ActualSize1 DB 0
 0052  00					SEND_NAME_F DB 0
 0053  00					RECIVE_NAME_F DB 0
				; Printing Strings
				;**********************************************
				******
 0054  74 6F 20 65 6E 64			st0 db "to end game click f4 & 
				TO PAUSE F1 $"
       20 67 61 6D 65 20	
       63 6C 69 63 6B 20	
       66 34 20 26 20 54	
       4F 20 50 41 55 53	
       45 20 46 31 20 24	
 0078  54 6F 20 53 74 61			st1 db "To Start Chatting Press
				 F1",10,13,10,13,"       To Start Playing Game 
				Press F2",10,13,10,13,"       To End The Progra
Microsoft (R) Macro Assembler Version 5.10                  12/22/19 22:44:1
                                                             Page     1-26


				me Press Esc",10,13,10,13,'$'
       72 74 20 43 68 61	
       74 74 69 6E 67 20	
       50 72 65 73 73 20	
       46 31 0A 0D 0A 0D	
       20 20 20 20 20 20	
       20 54 6F 20 53 74	
       61 72 74 20 50 6C	
       61 79 69 6E 67 20	
       47 61 6D 65 20 50	
       72 65 73 73 20 46	
       32 0A 0D 0A 0D 20	
       20 20 20 20 20 20	
       54 6F 20 45 6E 64	
       20 54 68 65 20 50	
       72 6F 67 72 61 6D	
       65 20 50 72 65 73	
       73 20 45 73 63 0A	
       0D 0A 0D 24		
 00E8  70 72 65 73 73 20			st2 db "press Enter to back to 
				main menu",10,13,10,13,'$'
       45 6E 74 65 72 20	
       74 6F 20 62 61 63	
       6B 20 74 6F 20 6D	
       61 69 6E 20 6D 65	
       6E 75 0A 0D 0A 0D	
       24			
 010D  73 63 72 65 65 6E			st3 db "screen for chatting ",1
				0,13,10,13,'$'
       20 66 6F 72 20 63	
       68 61 74 74 69 6E	
       67 20 0A 0D 0A 0D	
       24			
 0126  73 63 72 65 65 6E			st4 db "screen for playing ",10
				,13,10,13,'$'
       20 66 6F 72 20 70	
       6C 61 79 69 6E 67	
       20 0A 0D 0A 0D 24	
 013E  73 63 72 65 65 6E			st5 db "screen for Exiting ",10
				,13,10,13,'$'
       20 66 6F 72 20 45	
       78 69 74 69 6E 67	
       20 0A 0D 0A 0D 24	
 0156  0A 0D 0A 0D 43 6C			st7 db 10,13,10,13,"Click f4 to
				 return to main menu $"
       69 63 6B 20 66 34	
       20 74 6F 20 72 65	
       74 75 72 6E 20 74	
       6F 20 6D 61 69 6E	
       20 6D 65 6E 75 20	
       24			
 017B  77 61 6E 74 20 54			ST8 DB 'want TO CHAT YOU','$'
       4F 20 43 48 41 54	
       20 59 4F 55 24		
Microsoft (R) Macro Assembler Version 5.10                  12/22/19 22:44:1
                                                             Page     1-27


 018C  77 61 6E 74 20 54			ST9 DB 'want TO game with YOU',
				'$'
       4F 20 67 61 6D 65	
       20 77 69 74 68 20	
       59 4F 55 24		
 01A2  54 6F 20 53 74 61			ST10 DB "To Start LEVEL ONE pre
				ss 1 ",10,13,10,13,"       To Start LEVEL TWO p
				ress 2",'$'
       72 74 20 4C 45 56	
       45 4C 20 4F 4E 45	
       20 70 72 65 73 73	
       20 31 20 0A 0D 0A	
       0D 20 20 20 20 20	
       20 20 54 6F 20 53	
       74 61 72 74 20 4C	
       45 56 45 4C 20 54	
       57 4F 20 70 72 65	
       73 73 20 32 24		
 01E3  2A 2A 2A 20 20 54			window_winner db "***  The Winn
				er is  *** ",10,13,10,13,'$'
       68 65 20 57 69 6E	
       6E 65 72 20 69 73	
       20 20 2A 2A 2A 20	
       0A 0D 0A 0D 24		
 0200  2A 2A 2A 20 20 6E			equal_window db "***  no one  *
				***",'$'
       6F 20 6F 6E 65 20	
       20 2A 2A 2A 2A 24	
				;**********************************************
				************
				; For inline chatting
				;**********************************************
				************
 0212  11			PLAYER1_CHATCURSOR DB 017D
 0213  11			PLAYER2_CHATCURSOR DB 017D
				
				; Printing and Drawing variables
				;**********************************************
				*******
 = 0000						BGCOLOR         EQU 0H   ; back
				ground color
 = 0056						REFLECTORCOLOR  EQU 56H  ; refl
				ector color
 0214  33					SHIP1COLOR      DB 33H  ; ship 
				1 color
 0215  33					SHIP2COLOR      DB 33H  ; ship 
				1 color
 = 0043						BOARDSCOLOR     EQU 043H ; boar
				ds color
 = 0002						BOARDERTHICK    EQU  2   ; boar
				ds thickness
 = 0091						BOARDER1FY      EQU 145  ; fris
				t boarder y
 = 0000						BOARDER1FX      EQU  0   ; boar
Microsoft (R) Macro Assembler Version 5.10                  12/22/19 22:44:1
                                                             Page     1-28


				ds frist x
 = 0280						BOARDER1EX      EQU 640  ; boar
				ds end x
 = 003C						REFLECTORlen    EQU  60  ;refle
				ctor length
 = 001E						ShipSizep1y     EQU  30  ; part
				 1 in ship length
 = 0008						ShipSizep2Y     EQU  8   ; part
				 2 in ship length
 = 0013						PLAYER_SC_pY    EQU 13H  ;playe
				r score position y
 = 0001						PLAYER1_SC_pX   EQU 01H  ;playe
				r 1 score position x
 = 0014						PLAYER2_SC_pX   EQU 14H  ;playe
				r 2 score position y
 = 0015						PLAYER1_msg_py  EQU 15H  ;playe
				r 1 message position y
 = 0018						PLAYER2_msg_py  EQU 18H  ;playe
				r 2 message position y
 = 0044						ship2Damage     EQU 44h  ; colo
				r to damage 
 = 0044						ship1Damage     EQU 44h  ;color
				 to damage
 = 0097						helthfy         equ 151
 = 0008						helthlen        equ 8
 0216  0063 0068 006D 0072			helthsh1fx      dw 99 ,104,109,
				114,119,124,129,134,139,144
       0077 007C 0081 0086	
       008B 0090		
 022A  0066 006B 0070 0075			helthsh1ex      dw 102,107,112,
				117,122,127,132,137,142,147
       007A 007F 0084 0089	
       008E 0093		
 = 0004						helthcolor      equ 04h
 023E  00F9 00FE 0103 0108			helthsh2fx      dw  249,254,259
				,264,269,274,279,284,289,294  
       010D 0112 0117 011C	
       0121 0126		
 0252  00FC 0101 0106 010B			helthsh2Ex	dw  252,257,262
				,267,272,277,282,287,292,297
       0110 0115 011A 011F	
       0124 0129		
				; Player 1 Variables
				;**********************************************
				******
 0266  0001					Ship1_Speed  DW 1
 0268  00					SH1PROTECT_FLAG DB 0
 0269  00					SH1TIMES_PROTECT DB 0
 026A  000A					sh1health   Dw 10    
 026C  0001					sh1p1fy   DW 1
 026E  000C					sh1p2fy   DW 12
 = 0005						sh1p1fx   EQU 5
 = 000F						sh1p1ENDx equ 15
 = 0010						sh1p2fx   EQU 16
Microsoft (R) Macro Assembler Version 5.10                  12/22/19 22:44:1
                                                             Page     1-29


 = 0015						sh1p2ENDx equ 21
 0270  00					p1_bulls   db   0       ; No of
				 bullets fired
 0271  00					fl       db   00h 
				
						; Player 2 Variables
						;******************************
				**********************
 0272  0001					Ship2_Speed  DW 1
 0274  00					SH2PROTECT_FLAG DB 0
 0275  00					SH2TIMES_PROTECT DB 0
 0276  000A					sh2health   Dw 10   
 0278  0001					sh2p1fy   DW   1
 027A  000C					sh2p2fy   DW   12
 = 012C						sh2p1fx   EQU 300
 = 0136						sh2p1ENDx equ 310
 = 0126						sh2p2fx   EQU 294
 = 012B						sh2p2ENDx equ 299
 027C  00					p2_bulls   db   0       ; No of
				 bullets fired
 027D  00					fr       db   00h
				                ; IsThereAWinner - boolean valu
				e to determine if there's a final winner or not
 027E  00			                IsThereAWinner db 00H
				                ; Reflector Variables
				                ;******************************
				**********************
 027F  0001					REFfristY DW    1
 = 0097						REFfristX EQU  151
 = 009C						REFendX   EQU  156 
 0281  01					REFflag   db    01             
				; it take one or two  to detrmine if it move do
				wn "if 1" or move up "if 0"
 = 0FFF						REFSPEED  EQU   0fffh          
				;It is the counter when equal zero the reflecto
				r step & it control speed of reflector
 0282  0FFF					REFCTR    dw    0fffh
				
				; Bullets Variables
				;**********************************************
				******
 = 0014						buW     equ     20      ; Bulle
				t width. No need to keep its height, just 3.
				; All Bullets Positions Array, Each bullet is r
				epresented by 2 words
				; LSW => stores X of the top-left px.
				; MSW => stores Y of the top-left px. in the fi
				rst byte, and type of the bullet in the MSB
				; Type of bullet is 0 for left-to-right bullet 
				and 1 for right-to-left
 0284  0064[					bullPoses   dw  100 dup(0FFFFH)
				, 0FEFEH 
	   FFFF			
			 ]	
Microsoft (R) Macro Assembler Version 5.10                  12/22/19 22:44:1
                                                             Page     1-30


       FEFE			
 034E  0005					bullRPwr    dW  5
 0350  0005					bullLPwr    dW  5
 = 00FF						bullLSpeed  EQU  00FFH   ; Spee
				d of left-to-right bullets in gameloop units
 0352  00FF					bullLCtr    dw   00FFH   ; Spee
				d of left-to-right bullets in gameloop units
 = 0AFF						bullRSpeed  EQU  0AFFH   ; Spee
				d of right-to-left bullets in gameloop units
 0354  0AFF					bullRCtr    dw  0AFFH   ; Speed
				 of right-to-left bullets in gameloop units
				;**********************************************
				********
				;power ups 
				
 0356  01					POWERUP_XFLAG     DB  1        
				  ; TO DETRMINE RIGTH '0' OR LEFT '1'
 0357  0008					POWERUP_fy        dw  8        
				  ; FRIST Y
 0359  0003FFFF					POWERUP_COUNTER   dD  03ffffh  
				  ; COUNTER
 035D  04					POWERUP_color     DB 04h       
				  ; COLOR &TYPE
 035E  00					POWERUP_ON        DB 0         
				  ;IF IN SCREEN
 035F  00			                POWERUP_L_IS_DRAWN DB 0
 0360  00			                POWERUP_R_IS_DRAWN DB 0
				
 = 0008						POWERUP_LEN     EQU 8
 = 00CE						POWERUPR_fx     EQU 206 
						; RIGTH SIDE FRIST X
 = 00D3						POWERUPR_ex     EQU 211 
						; RIGTH SIDE END X
 = 005F						POWERUPL_fx     EQU 95	 
					    ; LEFT SIDE FRIST X
 = 0065						POWERUPL_ex     EQU 101 
						    ; LEFT SIDE END X
 = 0003FFFF					POWERUP_TODROW  EQU 03FFFFH    
				 ;THE MAIN VALUE TO FILL COUNTER WHEN DISAPEARE
 = 0003FFFF					POWERUP_TODELETE  EQU 03FFFFH  
				 ;THE MAIN VALUE TO FILL COUNTER WHEN APEARE
 = 0082						POWERUP_MAXY    EQU 130        
				 ; MaX VALUE OF Y
 = 0004						HELTH_UP        EQU 04H	
						;COLOR OF HEALTH BACKET
 = 0002						SPEAD_UP        EQU 02H	
						; COLOR OF SPEED UP
 = 0001						SPEAD_DOWN      EQU 01H	
						; COLOR SPEAD_DOWN
 = 0003						PROTECT         EQU 03H	
						; COLOR PROTECT
				;**********************************************
				**************
				;ROCKET 
Microsoft (R) Macro Assembler Version 5.10                  12/22/19 22:44:1
                                                             Page     1-31


				
 0361  01					ROCKET_XFLAG     DB  1         
				 ; TO DETRMINE RIGTH '0' OR LEFT '1'
 0362  0004					ROCKET_fy        dw  4         
				 ; FRIST Y
 0364  000FFFFF					ROCKET_COUNTER   dD  0Fffffh   
				 ; COUNTER
 0368  0C					ROCKET_color     DB 0Ch        
				 ; COLOR 
 0369  00					ROCKET_ON        DB 0          
				 ;IF IN SCREEN
 036A  00			                ROCK_L_IS_DRAWN  DB 0
 036B  00			                ROCK_R_IS_DRAWN  DB 0
 = 001C						ROCKET_LEN     EQU 28
 = 00E2						ROCKETR_fx     EQU 226 	
					; RIGTH SIDE FRIST X
 = 00E7						ROCKETR_ex     EQU 231 	
					; RIGTH SIDE END X
 = 004B						ROCKETL_fx     EQU 75	 
					    ; LEFT SIDE FRIST X
 = 0050						ROCKETL_ex     EQU 80 	
					    ; LEFT SIDE END X
 = 000FFFFF					ROCKET_TODROW  EQU 0FFFFFH     
				;THE MAIN VALUE TO FILL COUNTER WHEN DISAPEARE
 = 000FFFFF					ROCKET_TODELETE  EQU 0FFFFFH   
				;THE MAIN VALUE TO FILL COUNTER WHEN APEARE
 = 006E						ROCKET_MAXY    EQU 110         
				; MaX VALUE OF Y
				                
				;**********************************************
				*********
				;buffer to take name
 036C						MyBuffer LABEL BYTE ; TO READ I
				N 
 036C  28					BufferSize db 40
 036D  00					ActualSize db ?
 036E  0028[					BufferData db 40 dup('$')
					
	   24			
			 ]	
				
				
				   .CODE
 0000				MAIN	PROC	FAR
				
 0000  B8 ---- R		        MOV	AX,@DATA
 0003  8E D8			        MOV	DS,AX
				        ;**********************; TO USE STRING 
				OPERATION
 0005  8C D8			        mov AX,DS   
 0007  8E C0			        mov ES,AX 
				        ;***********************
 0009  80 3E 000A R 24		        cmp playership1,'$'  ; to check if i ne
				ed to enter player name or if it aready exist
Microsoft (R) Macro Assembler Version 5.10                  12/22/19 22:44:1
                                                             Page     1-32


 000E  0F 85 00B7 R		        jnz main_menu_pre
				        name_page
 0012                        2			??0003: 
 0012  B4 06                 3					MOV AH, 06h    
				; Scroll up function 
 0014  32 C0                 3					XOR AL, AL     
				; Clear entire screen 
 0016  33 C9                 3					XOR CX, CX     
				; Upper left corner CH=row, CL=column 
 0018  BA 184F               3					MOV DX, 184FH  
				; lower right corner DH=row, DL=column 
 001B  B7 0F                 3					MOV BH, word_co
				lor    ; color 
 001D  CD 10                 3					INT 10H 
 001F  B2 07                 2				mov dl, 07H 
 0021  B6 06                 2				mov dh, 6H 
 0023  BB 0000               3			mov bx, 0 ; Page number 0 for g
				raphics modes 
 0026  B4 02                 3			mov ah, 2h 
 0028  CD 10                 3			int 10h 
 002A  B4 09                 3	                mov ah,9h 
 002C  BA 0038 R             3	                mov dx,offset MESSHIP1 
 002F  CD 21                 3	                int 21h 
 0031  B2 07                 2				mov dl, 07H 
 0033  B6 0A                 2				mov dh, 0AH 
 0035  BB 0000               3			mov bx, 0 ; Page number 0 for g
				raphics modes 
 0038  B4 02                 3			mov ah, 2h 
 003A  CD 10                 3			int 10h 
 003C  B4 09                 3	                mov ah,9h 
 003E  BA 001E R             3	                mov dx,offset MES 
 0041  CD 21                 3	                int 21h 
 0043  B2 0A                 2				mov dl, 0AH 
 0045  B6 08                 2				mov dh, 8H 
 0047  BB 0000               3			mov bx, 0 ; Page number 0 for g
				raphics modes 
 004A  B4 02                 3			mov ah, 2h 
 004C  CD 10                 3			int 10h 
 004E  B4 01                 3		   mov  ah, 1 
 0050  B9 0004               3		   mov  cx, 4         ;?¦¦ BIG CURSOR
				. 
 0053  CD 10                 3		   int  10h 
 0055  B4 0A                 3			mov ah,0AH        ;Read from ke
				yboard 
 0057  BA 036C R             3			mov dx,offset MyBuffer 
 005A  CD 21                 3			int 21h 
 005C  80 3E 036E R 24       2				CMP BufferData,'$' ; TO
				 CHECK IF PLAYER ENTER NOTHING . 
 0061  72 AF                 2				JB ??0003 
 0063  80 3E 036E R 41       2				CMP BufferData,'A' ; TO
				 CHECK THE FIRST CHAR (No digits or special cha
				racters). 
 0068  72 A8                 2				JB ??0003 
 006A  80 3E 036E R 5A       2				CMP BufferData,'Z' 
Microsoft (R) Macro Assembler Version 5.10                  12/22/19 22:44:1
                                                             Page     1-33


 006F  0F 86 0081 R          2				JBE ??0004 
 0073  80 3E 036E R 61       2				CMP BufferData,'a' 
 0078  72 98                 2				JB ??0003 
 007A  80 3E 036E R 7A       2				CMP BufferData,'z' 
 007F  77 91                 2				JA ??0003 
 0081                        2				??0004: 
 0081  80 3E 036D R 0F       2					CMP ActualSize,
				15 ; TO CHECK NAME NOT BIG THAN 15 
 0086  77 8A                 2				JA  ??0003 
 0088  BE 036E R             1				mov SI,offset BufferDat
				a 
 008B  BF 000A R             1				mov DI,offset playershi
				p1 
 008E                        1			??0001: 
 008E  8A 0E 036D R          1					mov cL,ActualSi
				ze 
 0092  32 ED                 1					XOR CH,CH 
 0094  F3/ A4                1					REP MOVSB;Copie
				s the first ActualSize  BYTE from SI to DI 
 0096  BF 000A R             1					mov DI,offset p
				layership1 
 0099  A0 036D R             1					MOV AL,ActualSi
				ze 
 009C  A2 0002 R             1					MOV CHAR1,AL 
 009F  80 3E 0002 R 00       2	    CMP CHAR1,0 
 00A4  0F 84 00B7 R          2	    JZ ??0009 
 00A8  BA 03FD               2	    MOV DX,03FDH 
 00AB                        2	??0008: 
 00AB  EC                    2	    IN AL,DX            ; Line status register 
 00AC  A8 20                 2	    TEST AL,00100000B   ; Means NOT EMPTY 
 00AE  74 FB                 2	    JZ ??0008 
 00B0  BA 03F8               2	    MOV DX,3F8H         ; If empty, send CHAR1 
 00B3  A0 0002 R             2	    MOV AL,CHAR1 
 00B6  EE                    2	    OUT DX,AL 
 00B7                        2	??0009: 
 00B7				        main_menu_pre:
				        ; Changes to the mode 
				        DETERMINE_MODE 13H ,0H ; VIDEO MODE
 00B7  B4 00                 1				mov ah,0               
				 ;Change video mode (Graphical MODE) 
 00B9  B0 13                 1				mov al,13H        ;Max 
				memory size 16KByte 
 00BB  BB 0000               1				mov bx,0H 
 00BE  CD 10                 1				int 10h 
				        CONFIG  ; Serial configuration
 00C0  BA 03FB               1	    MOV DX, 03FBH 
 00C3  B0 80                 1	    MOV AL,80H 
 00C5  EE                    1	    OUT DX,AL 
 00C6  BA 03F8               1	    MOV DX,3F8H 
 00C9  B0 0C                 1	    MOV AL,0CH 
 00CB  EE                    1	    OUT DX,AL 
 00CC  BA 03F9               1	    MOV DX,3F9H 
 00CF  B0 00                 1	    MOV AL,00H 
 00D1  EE                    1	    OUT DX,AL 
Microsoft (R) Macro Assembler Version 5.10                  12/22/19 22:44:1
                                                             Page     1-34


 00D2  BA 03FB               1	    MOV DX,3FBH 
 00D5  B0 1B                 1	    MOV AL, 00011011B 
 00D7  EE                    1	    OUT DX,AL 
				
				        ; But DI at the first element of the bu
				llets array
 00D8  BF 0284 R		        MOV DI,offset bullPoses
				
 00DB				MAIN_MENU:
 00DB  E8 17D6 R		        CALL CLRMAINMEMORY
 00DE  E8 01DE R		        CALL SHOW_MAIN_MENU
 00E1				MAIN_GET_USER_INP:
				        CHECKKEY
 00E1  B4 01                 1	    MOV AH,01H 
 00E3  CD 16                 1	    INT 16H 
 00E5  0F 84 016C R		        JZ MAIN_RECIVE_USER_INP
				        GETKEY
 00E9  B4 00                 1	    MOV AH,0 
 00EB  CD 16                 1	    INT 16H 
				        COMPARE_KEY 03BH        ; Scan code of 
				F1 Key
 00ED  80 FC 3B              1	    CMP AH, 03BH 
 00F0  0F 85 0119 R		        JNE CMP_F2_TO_GAME
 00F4  C6 06 0005 R 01		        MOV CHAT_FLAG2,1
 00F9  C6 06 0002 R FF		        MOV CHAR1,0FFH
				        SENDMSG
 00FE  80 3E 0002 R 00       1	    CMP CHAR1,0 
 0103  0F 84 0116 R          1	    JZ ??000B 
 0107  BA 03FD               1	    MOV DX,03FDH 
 010A                        1	??000A: 
 010A  EC                    1	    IN AL,DX            ; Line status register 
 010B  A8 20                 1	    TEST AL,00100000B   ; Means NOT EMPTY 
 010D  74 FB                 1	    JZ ??000A 
 010F  BA 03F8               1	    MOV DX,3F8H         ; If empty, send CHAR1 
 0112  A0 0002 R             1	    MOV AL,CHAR1 
 0115  EE                    1	    OUT DX,AL 
 0116                        1	??000B: 
 0116  E9 01BC R		        JMP CHAT
 0119				 CMP_F2_TO_GAME:
				        COMPARE_KEY 03CH        ; Scan code of 
				F2 Key
 0119  80 FC 3C              1	    CMP AH, 03CH 
 011C  0F 85 0145 R		        JnE compare_esc
 0120  C6 06 0007 R 01		        MOV game_FLAG2,1
 0125  C6 06 0002 R FE		        MOV CHAR1,0FeH
				        SENDMSG
 012A  80 3E 0002 R 00       1	    CMP CHAR1,0 
 012F  0F 84 0142 R          1	    JZ ??000D 
 0133  BA 03FD               1	    MOV DX,03FDH 
 0136                        1	??000C: 
 0136  EC                    1	    IN AL,DX            ; Line status register 
 0137  A8 20                 1	    TEST AL,00100000B   ; Means NOT EMPTY 
 0139  74 FB                 1	    JZ ??000C 
 013B  BA 03F8               1	    MOV DX,3F8H         ; If empty, send CHAR1 
Microsoft (R) Macro Assembler Version 5.10                  12/22/19 22:44:1
                                                             Page     1-35


 013E  A0 0002 R             1	    MOV AL,CHAR1 
 0141  EE                    1	    OUT DX,AL 
 0142                        1	??000D: 
 0142  EB 7E 90				jmp game
 0145				compare_esc:   
					COMPARE_KEY 01H        ; Scan code of E
				SC key
 0145  80 FC 01              1	    CMP AH, 01H 
 0148  0F 85 016C R		        JNE  MAIN_RECIVE_USER_INP
 014C  C6 06 0002 R FD		        MOV CHAR1, 0FDH         ; MSG code for 
				ESC
				        SENDMSG
 0151  80 3E 0002 R 00       1	    CMP CHAR1,0 
 0156  0F 84 0169 R          1	    JZ ??000F 
 015A  BA 03FD               1	    MOV DX,03FDH 
 015D                        1	??000E: 
 015D  EC                    1	    IN AL,DX            ; Line status register 
 015E  A8 20                 1	    TEST AL,00100000B   ; Means NOT EMPTY 
 0160  74 FB                 1	    JZ ??000E 
 0162  BA 03F8               1	    MOV DX,3F8H         ; If empty, send CHAR1 
 0165  A0 0002 R             1	    MOV AL,CHAR1 
 0168  EE                    1	    OUT DX,AL 
 0169                        1	??000F: 
 0169  EB 66 90			        JMP ENDG
 016C				MAIN_RECIVE_USER_INP:
				        RECMSG                  ; Function to r
				ecieve a byte, stores ASCII in AH, if nothing i
				s sent, it puts CHAR2=0
 016C  BA 03FD               1	    MOV DX,03FDH    ; Check data is ready 
 016F                        1	??0010: 
 016F  EC                    1	    IN AL,DX 
 0170  A8 01                 1	    TEST AL,1       ; Means READY 
 0172  0F 85 017E R          1	    JNZ ??0011 
 0176  C6 06 0003 R 00       1	    MOV CHAR2,0 
 017B  EB 08 90              1	    JMP ??0012 
 017E                        1	??0011: 
 017E  BA 03F8               1	    MOV DX,03F8H    ; If ready, recieve 
 0181  EC                    1	    IN AL,DX 
 0182  A2 0003 R             1	    MOV CHAR2,AL    ; Save the recieved char in
				 CHAR2 
 0185                        1	??0012: 
 0185  80 3E 0003 R 00		        CMP CHAR2,0             ; Means nothing
				 to recieve
 018A  0F 84 00E1 R		        JZ  MAIN_GET_USER_INP  ; Go to the top 
				of the loop
				        COMPARE_MSG 0FDH        ; MSG Code for 
				ESC
 018E  80 3E 0003 R FD       1		CMP CHAR2, 0FDH 
 0193  0F 85 019A R		        JNZ compare_for_chat
 0197  EB 38 90			        JMP ENDG
 019A				compare_for_chat:
				        COMPARE_MSG 0FFH            
 019A  80 3E 0003 R FF       1		CMP CHAR2, 0FFH 
 019F  0F 85 01AB R		        JNZ compare_for_game_loop ; Go to the t
Microsoft (R) Macro Assembler Version 5.10                  12/22/19 22:44:1
                                                             Page     1-36


				op of the loop
 01A3  C6 06 0004 R 01		        MOV CHAT_FLAG1,1
 01A8  EB 12 90			        JMP CHAT
 01AB				compare_for_game_loop:
				        COMPARE_MSG 0FeH            
 01AB  80 3E 0003 R FE       1		CMP CHAR2, 0FeH 
 01B0  0F 85 00E1 R		        JNZ MAIN_GET_USER_INP  ; Go to the top 
				of the loop
 01B4  C6 06 0006 R 01		        MOV game_FLAG1,1
 01B9  EB 07 90			        JMP game
						
				; Branch of Chatting screen calls the SHOW_CHAT
				 Proc.
 01BC  E8 01FE R		CHAT:   CALL SHOW_CHAT 
 01BF  E9 00E1 R		        JMP MAIN_GET_USER_INP
				
				; Branch of Game screen calls the SHOW_GAME Pro
				c.
 01C2  E8 04D2 R		GAME:   CALL SHOW_GAME_level
 01C5  80 3E 027E R 01		        CMP IsThereAWinner,1
 01CA  0F 84 00DB R		        JZ MAIN_MENU
 01CE  E9 00E1 R		        JMP MAIN_GET_USER_INP            ; If t
				he user clicks enter, go to main-menu
				
 01D1				ENDG:   DETERMINE_MODE 03H, 00H
 01D1  B4 00                 1				mov ah,0               
				 ;Change video mode (Graphical MODE) 
 01D3  B0 03                 1				mov al,03H        ;Max 
				memory size 16KByte 
 01D5  BB 0000               1				mov bx,00H 
 01D8  CD 10                 1				int 10h 
				        HALT
 01DA  B4 4C                 1	        MOV AH,4CH 
 01DC  CD 21                 1	        INT 21H 
 01DE				MAIN	ENDP
				; Procedures
				;**********************************************
				*************
 01DE				SHOW_MAIN_MENU  PROC
				    PREP_BACKBROUND BGCOLOR; TO PREPARE BACKGRO
				UD COLOR & QUALITIES
 01DE  B4 06                 1					MOV AH, 06h    
				; Scroll up function 
 01E0  32 C0                 1					XOR AL, AL     
				; Clear entire screen 
 01E2  33 C9                 1					XOR CX, CX     
				; Upper left corner CH=row, CL=column 
 01E4  BA 184F               1					MOV DX, 184FH  
				; lower right corner DH=row, DL=column 
 01E7  B7 00                 1					MOV BH, BGCOLOR
				    ; color 
 01E9  CD 10                 1					INT 10H 
				    MOVE_CURSOR 7H,7H,0 ;to write in the middle
				 of screen
Microsoft (R) Macro Assembler Version 5.10                  12/22/19 22:44:1
                                                             Page     1-37


 01EB  B2 07                 1		    mov dl, 7H ; Column 
 01ED  B6 07                 1			mov dh, 7H ; Row 
 01EF  BB 0000               1			mov bx, 0 ; Page number 0 for g
				raphics modes 
 01F2  B4 02                 1			mov ah, 2h 
 01F4  CD 10                 1			int 10h 
				    PRINTMESSAGE st1   ;Print 3 cases
 01F6  B4 09                 1	                mov ah,9h 
 01F8  BA 0078 R             1	                mov dx,offset st1 
 01FB  CD 21                 1	                int 21h 
 01FD  C3			    RET
 01FE				SHOW_MAIN_MENU ENDP
				
				;**********************************************
				***
				; **** SHOW_CHAT - Showes the Chat screen ****
				; * USES :  AX, BX, CX , DX
				; * PARAMS :  NONE
				; *********************************************
				***
 01FE				SHOW_CHAT PROC
 01FE  E8 1804 R		                CALL CLRCHATMEMORY
 0201  80 3E 0004 R 01				CMP CHAT_FLAG1,1
 0206  0F 84 020B R				JZ PRINT_CMP_FLAG2
 020A  C3					RET
 020B				PRINT_CMP_FLAG2:
						MOVE_CURSOR 7H,11H,0 ;to write 
				in the END of screen
 020B  B2 07                 1		    mov dl, 7H ; Column 
 020D  B6 11                 1			mov dh, 11H ; Row 
 020F  BB 0000               1			mov bx, 0 ; Page number 0 for g
				raphics modes 
 0212  B4 02                 1			mov ah, 2h 
 0214  CD 10                 1			int 10h 
						PRINTMESSAGE playership2   ;Pri
				nt 
 0216  B4 09                 1	                mov ah,9h 
 0218  BA 001A R             1	                mov dx,offset playership2 
 021B  CD 21                 1	                int 21h 
						MOVE_CURSOR 7H,12H,0 ;to write 
				in the middle of screen
 021D  B2 07                 1		    mov dl, 7H ; Column 
 021F  B6 12                 1			mov dh, 12H ; Row 
 0221  BB 0000               1			mov bx, 0 ; Page number 0 for g
				raphics modes 
 0224  B4 02                 1			mov ah, 2h 
 0226  CD 10                 1			int 10h 
						PRINTMESSAGE ST8   
 0228  B4 09                 1	                mov ah,9h 
 022A  BA 017B R             1	                mov dx,offset ST8 
 022D  CD 21                 1	                int 21h 
 022F  80 3E 0005 R 01				CMP CHAT_FLAG2,1
 0234  0F 84 0239 R				JZ GO_CHAT_MODE
 0238  C3					RET
Microsoft (R) Macro Assembler Version 5.10                  12/22/19 22:44:1
                                                             Page     1-38


 0239				GO_CHAT_MODE:		
 0239  C6 06 0004 R 00				MOV CHAT_FLAG1,0
 023E  C6 06 0005 R 00				MOV CHAT_FLAG2,0
				                DETERMINE_MODE 07H,00H
 0243  B4 00                 1				mov ah,0               
				 ;Change video mode (Graphical MODE) 
 0245  B0 07                 1				mov al,07H        ;Max 
				memory size 16KByte 
 0247  BB 0000               1				mov bx,00H 
 024A  CD 10                 1				int 10h 
						CHAT_MODE1
 024C  BA 03FB               2	    MOV DX, 03FBH 
 024F  B0 80                 2	    MOV AL,80H 
 0251  EE                    2	    OUT DX,AL 
 0252  BA 03F8               2	    MOV DX,3F8H 
 0255  B0 0C                 2	    MOV AL,0CH 
 0257  EE                    2	    OUT DX,AL 
 0258  BA 03F9               2	    MOV DX,3F9H 
 025B  B0 00                 2	    MOV AL,00H 
 025D  EE                    2	    OUT DX,AL 
 025E  BA 03FB               2	    MOV DX,3FBH 
 0261  B0 1B                 2	    MOV AL, 00011011B 
 0263  EE                    2	    OUT DX,AL 
 0264  B8 0600               2	    MOV AX,0600H 
 0267  B7 07                 2	    MOV BH,07H 
 0269  B9 0000               2	    MOV CX,0 
 026C  BA 184F               2	    MOV DX,184FH 
 026F  CD 10                 2	    INT 10H 
 0271  B4 02                 3	    MOV AH,02H 
 0273  B7 00                 3	    MOV BH,00H 
 0275  B2 00                 3	    MOV DL,0 
 0277  B6 0D                 3	    MOV DH,13D 
 0279  CD 10                 3	    INT 10H 
 027B  B4 09                 3	    MOV AH,09H 
 027D  B7 00                 3	    MOV BH,0 
 027F  B0 3D                 3	    MOV AL,"=" 
 0281  B9 0050               3	    MOV CX,80 ; No of times 
 0284  B3 0F                 3	    MOV BL,0FH 
 0286  CD 10                 3	    INT 10H 
 0288  B2 00                 2		    mov dl, 0 ; Column 
 028A  B6 0C                 2			mov dh, 12 ; Row 
 028C  BB 0000               2			mov bx, 0 ; Page number 0 for g
				raphics modes 
 028F  B4 02                 2			mov ah, 2h 
 0291  CD 10                 2			int 10h 
 0293  B4 09                 2	                mov ah,9h 
 0295  BA 000A R             2	                mov dx,offset playership1 
 0298  CD 21                 2	                int 21h 
 029A  B2 00                 2		    mov dl, 0 ; Column 
 029C  B6 18                 2			mov dh, 24 ; Row 
 029E  BB 0000               2			mov bx, 0 ; Page number 0 for g
				raphics modes 
 02A1  B4 02                 2			mov ah, 2h 
 02A3  CD 10                 2			int 10h 
Microsoft (R) Macro Assembler Version 5.10                  12/22/19 22:44:1
                                                             Page     1-39


 02A5  B4 09                 2	                mov ah,9h 
 02A7  BA 001A R             2	                mov dx,offset playership2 
 02AA  CD 21                 2	                int 21h 
 02AC  B4 02                 2	    MOV AH,02H 
 02AE  B7 00                 2	    MOV BH,00H 
 02B0  B2 00                 2	    MOV DL,0 
 02B2  B6 0B                 2	    MOV DH,CURSOR1_Y 
 02B4  CD 10                 2	    INT 10H 
 02B6                        1	??0013: 
 02B6  B4 02                 2	    MOV AH,02H 
 02B8  B7 00                 2	    MOV BH,00H 
 02BA  8A 16 0000 R          2	    MOV DL,CURSOR1_CUR_X 
 02BE  B6 0B                 2	    MOV DH,CURSOR1_Y 
 02C0  CD 10                 2	    INT 10H 
 02C2  B4 01                 2	    MOV AH,01H 
 02C4  CD 16                 2	    INT 16H 
 02C6  0F 84 03D8 R          1	        JZ ??001B        ; Means that the sende
				r didn't press any key so go to recieve 
 02CA  B4 00                 3	    MOV AH,0 
 02CC  CD 16                 3	    INT 16H 
 02CE  A2 0002 R             2	    MOV CHAR1,AL 
 02D1  80 FC 3D              2	    CMP AH, 3DH 
 02D4  0F 84 039D R          1	        JZ ??0017 
 02D8                        1	??0014: 
 02D8  3C 0D                 2	    CMP AL, 0DH 
 02DA  0F 85 0302 R          1	        JNZ ??0015     ; If not, go check BACKS
				PACE 
 02DE  B4 06                 3	    MOV AH,06H 
 02E0  B0 01                 3	    MOV AL,1 
 02E2  B7 07                 3	    MOV BH,07H  ; Normal video attribute 
 02E4  B5 00                 3	    MOV CH,0 
 02E6  B1 00                 3	    MOV CL,0 
 02E8  B6 0B                 3	    MOV DH,11D 
 02EA  B2 4F                 3	    MOV DL,79D 
 02EC  CD 10                 3	    INT 10H 
 02EE  C6 06 0000 R 00       1	        MOV CURSOR1_CUR_X,0         ; Reset cur
				sor1_cur_x which holds the current cursor posit
				ion of sender 
 02F3  B4 02                 2	    MOV AH,02H 
 02F5  B7 00                 2	    MOV BH,00H 
 02F7  8A 16 0000 R          2	    MOV DL,CURSOR1_CUR_X 
 02FB  B6 0B                 2	    MOV DH,CURSOR1_Y 
 02FD  CD 10                 2	    INT 10H 
 02FF  E9 03C0 R             1	        JMP ??001A 
 0302                        1	??0015: 
 0302  3C 08                 2	    CMP AL, 08H 
 0304  0F 85 0355 R          1	        JNZ ??0016        ; If not, then it's a
				 character, go print it ! 
 0308  80 3E 0000 R 00       2		  CMP CURSOR1_CUR_X, 0    ; If BACKSPAC
				E, see if the cursor ia already at the left of 
				the screen i.e. empty line 
 030D  0F 85 0335 R          2	    JNZ ??001F 
 0311  B4 07                 4	    MOV AH,07H 
 0313  B0 01                 4	    MOV AL,1 
Microsoft (R) Macro Assembler Version 5.10                  12/22/19 22:44:1
                                                             Page     1-40


 0315  B7 07                 4	    MOV BH,07H  ; Normal video attribute 
 0317  B5 00                 4	    MOV CH,0 
 0319  B1 00                 4	    MOV CL,0 
 031B  B6 0B                 4	    MOV DH,11D 
 031D  B2 4F                 4	    MOV DL,79D 
 031F  CD 10                 4	    INT 10H 
 0321  C6 06 0000 R 50       2	    MOV CURSOR1_CUR_X, 80D 
 0326  B4 02                 3	    MOV AH,02H 
 0328  B7 00                 3	    MOV BH,00H 
 032A  8A 16 0000 R          3	    MOV DL,CURSOR1_CUR_X 
 032E  B6 0B                 3	    MOV DH,CURSOR1_Y 
 0330  CD 10                 3	    INT 10H 
 0332  EB 1E 90              2	    JMP ??0020 
 0335                        2	??001F: 
 0335  FE 0E 0000 R          2	    DEC CURSOR1_CUR_X 
 0339  B4 02                 3	    MOV AH,02H 
 033B  B7 00                 3	    MOV BH,00H 
 033D  8A 16 0000 R          3	    MOV DL,CURSOR1_CUR_X 
 0341  B6 0B                 3	    MOV DH,CURSOR1_Y 
 0343  CD 10                 3	    INT 10H 
 0345  B4 09                 3	    MOV AH,09H 
 0347  B7 00                 3	    MOV BH,0 
 0349  B0 20                 3	    MOV AL,' ' 
 034B  B9 0001               3	    MOV CX,1 ; No of times 
 034E  B3 0F                 3	    MOV BL,0FH 
 0350  CD 10                 3	    INT 10H 
 0352                        2	??0020: 
 0352  EB 6C 90              1	        JMP ??001A 
 0355                        1	??0016: 
 0355  B4 02                 2	    MOV AH,02H 
 0357  B7 00                 2	    MOV BH,00H 
 0359  8A 16 0000 R          2	    MOV DL,CURSOR1_CUR_X 
 035D  B6 0B                 2	    MOV DH,CURSOR1_Y 
 035F  CD 10                 2	    INT 10H 
 0361  B4 09                 3	    MOV AH,09H 
 0363  B7 00                 3	    MOV BH,0 
 0365  A0 0002 R             3	    MOV AL,CHAR1 
 0368  B9 0001               3	    MOV CX,1 ; No of times 
 036B  B3 0A                 3	    MOV BL,0AH 
 036D  CD 10                 3	    INT 10H 
 036F  B4 03                 3	    MOV AH,03H 
 0371  B7 00                 3	    MOV BH,00H 
 0373  CD 10                 3	    INT 10H 
 0375  FE C2                 2	    INC DL 
 0377  80 FA 50              2	    CMP DL, 80D 
 037A  0F 85 0396 R          2	    JNZ ??0021 
 037E  B4 06                 4	    MOV AH,06H 
 0380  B0 01                 4	    MOV AL,1 
 0382  B7 07                 4	    MOV BH,07H  ; Normal video attribute 
 0384  B5 00                 4	    MOV CH,0 
 0386  B1 00                 4	    MOV CL,0 
 0388  B6 0B                 4	    MOV DH,11D 
 038A  B2 4F                 4	    MOV DL,79D 
 038C  CD 10                 4	    INT 10H 
Microsoft (R) Macro Assembler Version 5.10                  12/22/19 22:44:1
                                                             Page     1-41


 038E  C6 06 0000 R 00       2	    MOV CURSOR1_CUR_X,0 
 0393  EB 05 90              2	    JMP ??0022 
 0396                        2	??0021: 
 0396  88 16 0000 R          2	    MOV CURSOR1_CUR_X,DL 
 039A                        2	??0022: 
 039A  EB 24 90              1	        JMP ??001A 
 039D                        1	??0017: 
 039D  C6 06 0002 R FF       1			MOV CHAR1,0FFH 
 03A2  80 3E 0002 R 00       2	    CMP CHAR1,0 
 03A7  0F 84 03BA R          2	    JZ ??0024 
 03AB  BA 03FD               2	    MOV DX,03FDH 
 03AE                        2	??0023: 
 03AE  EC                    2	    IN AL,DX            ; Line status register 
 03AF  A8 20                 2	    TEST AL,00100000B   ; Means NOT EMPTY 
 03B1  74 FB                 2	    JZ ??0023 
 03B3  BA 03F8               2	    MOV DX,3F8H         ; If empty, send CHAR1 
 03B6  A0 0002 R             2	    MOV AL,CHAR1 
 03B9  EE                    2	    OUT DX,AL 
 03BA                        2	??0024: 
 03BA                        1	??0018:           ; Dummy branch for resolving 
				jump out of range issue, Ends the program 
 03BA  E9 04B8 R             1	        JMP ??001E 
 03BD                        1	??0019:     ; Dummy branch for resolving jump o
				ut of range issue, Returns to the start of the 
				loop 
 03BD  E9 02B6 R             1	        JMP ??0013 
 03C0                        1	??001A: 
 03C0  80 3E 0002 R 00       2	    CMP CHAR1,0 
 03C5  0F 84 03D8 R          2	    JZ ??0026 
 03C9  BA 03FD               2	    MOV DX,03FDH 
 03CC                        2	??0025: 
 03CC  EC                    2	    IN AL,DX            ; Line status register 
 03CD  A8 20                 2	    TEST AL,00100000B   ; Means NOT EMPTY 
 03CF  74 FB                 2	    JZ ??0025 
 03D1  BA 03F8               2	    MOV DX,3F8H         ; If empty, send CHAR1 
 03D4  A0 0002 R             2	    MOV AL,CHAR1 
 03D7  EE                    2	    OUT DX,AL 
 03D8                        2	??0026: 
 03D8                        1	??001B: 
 03D8  BA 03FD               2	    MOV DX,03FDH    ; Check data is ready 
 03DB                        2	??0027: 
 03DB  EC                    2	    IN AL,DX 
 03DC  A8 01                 2	    TEST AL,1       ; Means READY 
 03DE  0F 85 03EA R          2	    JNZ ??0028 
 03E2  C6 06 0003 R 00       2	    MOV CHAR2,0 
 03E7  EB 08 90              2	    JMP ??0029 
 03EA                        2	??0028: 
 03EA  BA 03F8               2	    MOV DX,03F8H    ; If ready, recieve 
 03ED  EC                    2	    IN AL,DX 
 03EE  A2 0003 R             2	    MOV CHAR2,AL    ; Save the recieved char in
				 CHAR2 
 03F1                        2	??0029: 
 03F1  80 3E 0003 R 00       1	        CMP CHAR2,0                     ; Means
				 nothing to recieve 
Microsoft (R) Macro Assembler Version 5.10                  12/22/19 22:44:1
                                                             Page     1-42


 03F6  74 C5                 1	        JZ ??0019       ; Go to the top of the 
				loop 
 03F8  3C FF                 2	    CMP AL, 0FFH 
 03FA  0F 84 04B8 R          1	        JZ ??001E 
 03FE  3C 0D                 2	    CMP AL, 0DH 
 0400  0F 85 041B R          1	        JNZ ??001C     ; If not ENTER, go check
				 BS 
 0404  B4 06                 3	    MOV AH,06H 
 0406  B0 01                 3	    MOV AL,1 
 0408  B7 07                 3	    MOV BH,07H  ; Normal video attribute 
 040A  B5 0E                 3	    MOV CH,14D 
 040C  B1 00                 3	    MOV CL,0 
 040E  B6 17                 3	    MOV DH,23D 
 0410  B2 4F                 3	    MOV DL,79D 
 0412  CD 10                 3	    INT 10H 
 0414  C6 06 0001 R 00       1	        MOV CURSOR2_CUR_X,0         ; Reset CUR
				SOR2_CUR_X 
 0419  EB A2                 1	        JMP ??0019  ; Go to the top of the loop
				 
 041B                        1	??001C: 
 041B  3C 08                 2	    CMP AL, 08H 
 041D  0F 85 046E R          1	        JNZ ??001D                    ; If not,
				 then it's a character, go print it ! 
 0421  80 3E 0001 R 00       2	    CMP CURSOR2_CUR_X, 0    ; If BACKSPACE, see
				 if the cursor ia already at the left of the sc
				reen i.e. empty line 
 0426  0F 85 044E R          2	    JNZ ??002A 
 042A  B4 07                 4	    MOV AH,07H 
 042C  B0 01                 4	    MOV AL,1 
 042E  B7 07                 4	    MOV BH,07H  ; Normal video attribute 
 0430  B5 0E                 4	    MOV CH,14D 
 0432  B1 00                 4	    MOV CL,0 
 0434  B6 17                 4	    MOV DH,23D 
 0436  B2 4F                 4	    MOV DL,79D 
 0438  CD 10                 4	    INT 10H 
 043A  C6 06 0001 R 50       2	    MOV CURSOR2_CUR_X, 80D 
 043F  B4 02                 3	    MOV AH,02H 
 0441  B7 00                 3	    MOV BH,00H 
 0443  8A 16 0001 R          3	    MOV DL,CURSOR2_CUR_X 
 0447  B6 17                 3	    MOV DH,CURSOR2_Y 
 0449  CD 10                 3	    INT 10H 
 044B  EB 1E 90              2	    JMP ??002B 
 044E                        2	??002A: 
 044E  FE 0E 0001 R          2	    DEC CURSOR2_CUR_X 
 0452  B4 02                 3	    MOV AH,02H 
 0454  B7 00                 3	    MOV BH,00H 
 0456  8A 16 0001 R          3	    MOV DL,CURSOR2_CUR_X 
 045A  B6 17                 3	    MOV DH,CURSOR2_Y 
 045C  CD 10                 3	    INT 10H 
 045E  B4 09                 3	    MOV AH,09H 
 0460  B7 00                 3	    MOV BH,0 
 0462  B0 20                 3	    MOV AL,' ' 
 0464  B9 0001               3	    MOV CX,1 ; No of times 
 0467  B3 0F                 3	    MOV BL,0FH 
Microsoft (R) Macro Assembler Version 5.10                  12/22/19 22:44:1
                                                             Page     1-43


 0469  CD 10                 3	    INT 10H 
 046B                        2	??002B: 
 046B  E9 03BD R             1	        JMP ??0019          ; Go to the top of 
				the loop 
 046E                        1	??001D: 
 046E  B4 02                 2	    MOV AH,02H 
 0470  B7 00                 2	    MOV BH,00H 
 0472  8A 16 0001 R          2	    MOV DL,CURSOR2_CUR_X 
 0476  B6 17                 2	    MOV DH,CURSOR2_Y 
 0478  CD 10                 2	    INT 10H 
 047A  B4 09                 3	    MOV AH,09H 
 047C  B7 00                 3	    MOV BH,0 
 047E  A0 0003 R             3	    MOV AL,CHAR2 
 0481  B9 0001               3	    MOV CX,1 ; No of times 
 0484  B3 0B                 3	    MOV BL,0BH 
 0486  CD 10                 3	    INT 10H 
 0488  B4 03                 3	    MOV AH,03H 
 048A  B7 00                 3	    MOV BH,00H 
 048C  CD 10                 3	    INT 10H 
 048E  FE C2                 2	    INC DL 
 0490  80 FA 50              2	    CMP DL, 80D 
 0493  0F 85 04AF R          2	    JNZ ??002C 
 0497  B4 06                 4	    MOV AH,06H 
 0499  B0 01                 4	    MOV AL,1 
 049B  B7 07                 4	    MOV BH,07H  ; Normal video attribute 
 049D  B5 0E                 4	    MOV CH,14D 
 049F  B1 00                 4	    MOV CL,0 
 04A1  B6 17                 4	    MOV DH,23D 
 04A3  B2 4F                 4	    MOV DL,79D 
 04A5  CD 10                 4	    INT 10H 
 04A7  C6 06 0001 R 00       2	    MOV CURSOR2_CUR_X,0 
 04AC  EB 05 90              2	    JMP ??002D 
 04AF                        2	??002C: 
 04AF  88 16 0001 R          2	    MOV CURSOR2_CUR_X,DL 
 04B3                        2	??002D: 
 04B3  E9 03BD R             1	        JMP ??0019          ; Go to the top of 
				the loop 
 04B6  EB FE                 2	LB: JMP LB 
 04B8                        1	??001E: 
 04B8  C6 06 0004 R 00       1			MOV CHAT_FLAG1,0 
 04BD  C6 06 0005 R 00       1			MOV CHAT_FLAG2,0 
 04C2  C6 06 0000 R 00       1			mov CURSOR1_CUR_X , 0 
 04C7  C6 06 0001 R 00       1			mov CURSOR2_CUR_X , 0 
 04CC  9A 0000 ---- R				CALL MAIN 
 04D1  C3			        RET
 04D2				SHOW_CHAT ENDP
				
				;**********************************************
				****
				;***show game levels two choose level
				;**********************************************
				****
 04D2				SHOW_GAME_level proc
 04D2  80 3E 0006 R 01				CMP game_FLAG1,1
Microsoft (R) Macro Assembler Version 5.10                  12/22/19 22:44:1
                                                             Page     1-44


 04D7  0F 84 04E1 R				JZ PRIN_CMP_FLAG2
 04DB  C6 06 0009 R 01				MOV SEND_INVITATION,1
 04E0  C3					RET
 04E1				PRIN_CMP_FLAG2:
 04E1  80 3E 0007 R 01				CMP game_FLAG2,1
 04E6  0F 84 0514 R				JZ START_LEVEL_PAGE
						MOVE_CURSOR 7H,11H,0 ;to write 
				in the END of screen
 04EA  B2 07                 1		    mov dl, 7H ; Column 
 04EC  B6 11                 1			mov dh, 11H ; Row 
 04EE  BB 0000               1			mov bx, 0 ; Page number 0 for g
				raphics modes 
 04F1  B4 02                 1			mov ah, 2h 
 04F3  CD 10                 1			int 10h 
						PRINTMESSAGE playership2   ;Pri
				nt 
 04F5  B4 09                 1	                mov ah,9h 
 04F7  BA 001A R             1	                mov dx,offset playership2 
 04FA  CD 21                 1	                int 21h 
						MOVE_CURSOR 7H,12H,0 ;to write 
				in the middle of screen
 04FC  B2 07                 1		    mov dl, 7H ; Column 
 04FE  B6 12                 1			mov dh, 12H ; Row 
 0500  BB 0000               1			mov bx, 0 ; Page number 0 for g
				raphics modes 
 0503  B4 02                 1			mov ah, 2h 
 0505  CD 10                 1			int 10h 
						PRINTMESSAGE ST9   
 0507  B4 09                 1	                mov ah,9h 
 0509  BA 018C R             1	                mov dx,offset ST9 
 050C  CD 21                 1	                int 21h 
 050E  C6 06 0009 R 02				MOV SEND_INVITATION,2
 0513  C3					RET
 0514				START_LEVEL_PAGE:
 0514  80 3E 0009 R 01				CMP SEND_INVITATION,1
 0519  0F 85 059F R				JNZ RECIVE_LEVEL
						DETERMINE_MODE 13H,00H
 051D  B4 00                 1				mov ah,0               
				 ;Change video mode (Graphical MODE) 
 051F  B0 13                 1				mov al,13H        ;Max 
				memory size 16KByte 
 0521  BB 0000               1				mov bx,00H 
 0524  CD 10                 1				int 10h 
				                PREP_BACKBROUND BGCOLOR
 0526  B4 06                 1					MOV AH, 06h    
				; Scroll up function 
 0528  32 C0                 1					XOR AL, AL     
				; Clear entire screen 
 052A  33 C9                 1					XOR CX, CX     
				; Upper left corner CH=row, CL=column 
 052C  BA 184F               1					MOV DX, 184FH  
				; lower right corner DH=row, DL=column 
 052F  B7 00                 1					MOV BH, BGCOLOR
				    ; color 
Microsoft (R) Macro Assembler Version 5.10                  12/22/19 22:44:1
                                                             Page     1-45


 0531  CD 10                 1					INT 10H 
				                MOVE_CURSOR 7H,7H,0 ;to write i
				n the middle of screen
 0533  B2 07                 1		    mov dl, 7H ; Column 
 0535  B6 07                 1			mov dh, 7H ; Row 
 0537  BB 0000               1			mov bx, 0 ; Page number 0 for g
				raphics modes 
 053A  B4 02                 1			mov ah, 2h 
 053C  CD 10                 1			int 10h 
				                PRINTMESSAGE st10   ;Print 3 ca
				ses
 053E  B4 09                 1	                mov ah,9h 
 0540  BA 01A2 R             1	                mov dx,offset st10 
 0543  CD 21                 1	                int 21h 
 0545				TAKE_LEVEL:
						GETKEY
 0545  B4 00                 1	    MOV AH,0 
 0547  CD 16                 1	    INT 16H 
 0549  3C 31					CMP AL,'1'
 054B  0F 85 0575 R				JNZ LEVEL_TWO
 054F  C6 06 0008 R 01				MOV GAME_LEVEL ,1
 0554  C6 06 0002 R 01				MOV CHAR1,1
				                SENDMSG
 0559  80 3E 0002 R 00       1	    CMP CHAR1,0 
 055E  0F 84 0571 R          1	    JZ ??002F 
 0562  BA 03FD               1	    MOV DX,03FDH 
 0565                        1	??002E: 
 0565  EC                    1	    IN AL,DX            ; Line status register 
 0566  A8 20                 1	    TEST AL,00100000B   ; Means NOT EMPTY 
 0568  74 FB                 1	    JZ ??002E 
 056A  BA 03F8               1	    MOV DX,3F8H         ; If empty, send CHAR1 
 056D  A0 0002 R             1	    MOV AL,CHAR1 
 0570  EE                    1	    OUT DX,AL 
 0571                        1	??002F: 
 0571  E8 05E1 R				CALL SHOW_GAME
 0574  C3					RET
 0575					LEVEL_TWO:
 0575  3C 32					CMP AL,'2'
 0577  75 CC			                JNZ TAKE_LEVEL
 0579  C6 06 0008 R 02		                MOV GAME_LEVEL ,2
 057E  C6 06 0002 R 02		                MOV CHAR1,2
				                SENDMSG
 0583  80 3E 0002 R 00       1	    CMP CHAR1,0 
 0588  0F 84 059B R          1	    JZ ??0031 
 058C  BA 03FD               1	    MOV DX,03FDH 
 058F                        1	??0030: 
 058F  EC                    1	    IN AL,DX            ; Line status register 
 0590  A8 20                 1	    TEST AL,00100000B   ; Means NOT EMPTY 
 0592  74 FB                 1	    JZ ??0030 
 0594  BA 03F8               1	    MOV DX,3F8H         ; If empty, send CHAR1 
 0597  A0 0002 R             1	    MOV AL,CHAR1 
 059A  EE                    1	    OUT DX,AL 
 059B                        1	??0031: 
 059B  E8 05E1 R				CALL SHOW_GAME
Microsoft (R) Macro Assembler Version 5.10                  12/22/19 22:44:1
                                                             Page     1-46


 059E  C3					RET
 059F				RECIVE_LEVEL:
				        RECMSG                  ; Function to r
				ecieve a byte, stores ASCII in AH, if nothing i
				s sent, it puts CHAR2=0
 059F  BA 03FD               1	    MOV DX,03FDH    ; Check data is ready 
 05A2                        1	??0032: 
 05A2  EC                    1	    IN AL,DX 
 05A3  A8 01                 1	    TEST AL,1       ; Means READY 
 05A5  0F 85 05B1 R          1	    JNZ ??0033 
 05A9  C6 06 0003 R 00       1	    MOV CHAR2,0 
 05AE  EB 08 90              1	    JMP ??0034 
 05B1                        1	??0033: 
 05B1  BA 03F8               1	    MOV DX,03F8H    ; If ready, recieve 
 05B4  EC                    1	    IN AL,DX 
 05B5  A2 0003 R             1	    MOV CHAR2,AL    ; Save the recieved char in
				 CHAR2 
 05B8                        1	??0034: 
 05B8  80 3E 0003 R 00		        CMP CHAR2,0             ; Means nothing
				 to recieve
 05BD  74 E0			        JZ  RECIVE_LEVEL  ; Go to the top of th
				e loop
 05BF  80 3E 0003 R 01		        CMP CHAR2,1
 05C4  0F 85 05D1 R		        JNZ RECIVE_LEVEL_TWO
 05C8  C6 06 0008 R 01		                MOV GAME_LEVEL ,1
 05CD  E8 05E1 R		                CALL SHOW_GAME
 05D0  C3			                RET
 05D1				        RECIVE_LEVEL_TWO:
 05D1  80 3E 0003 R 02				CMP CHAR2,2
 05D6  75 C7			                JNZ RECIVE_LEVEL
 05D8  C6 06 0008 R 02		                MOV GAME_LEVEL ,2
 05DD  E8 05E1 R		                CALL SHOW_GAME
 05E0  C3			                RET
 05E1				SHOW_GAME_level endp
				;**********************************************
				***
				; **** SHOW_GAME - Shows the game screen ****
				; * USES :  ALL
				; * PARAMS :  DI => *First_Empty_Byte
				; *********************************************
				***
 05E1				SHOW_GAME PROC
				        ; Reseting all game variables in the me
				mory
 05E1  E8 1819 R		        CALL CLRGAMEMEMORY
				        ; Drawing and preparing
				        PREP_BACKBROUND BGCOLOR
 05E4  B4 06                 1					MOV AH, 06h    
				; Scroll up function 
 05E6  32 C0                 1					XOR AL, AL     
				; Clear entire screen 
 05E8  33 C9                 1					XOR CX, CX     
				; Upper left corner CH=row, CL=column 
 05EA  BA 184F               1					MOV DX, 184FH  
Microsoft (R) Macro Assembler Version 5.10                  12/22/19 22:44:1
                                                             Page     1-47


				; lower right corner DH=row, DL=column 
 05ED  B7 00                 1					MOV BH, BGCOLOR
				    ; color 
 05EF  CD 10                 1					INT 10H 
 05F1  E8 0E0B R		        CALL DRWINFO
 05F4  E8 0FF9 R		        CALL DRWSHIPS
 05F7  E8 0EBA R		        call drawhelthsh1
 05FA  E8 0F22 R		        call drawhelthsh2
 05FD  80 3E 0008 R 01				CMP GAME_LEVEL,1
 0602  0F 85 0609 R				JNZ GM_LP
 0606  E8 1070 R				CALL DRWREFL
						
 0609				GM_LP:
 0609  C6 06 0002 R 00		        MOV CHAR1,0
 060E  C6 06 0003 R 00		        MOV CHAR2,0
				        ; Handling counters and drawing of Powe
				rups		
 0613  66| FF 0E 0359 R		        DEC POWERUP_COUNTER
 0618  66| 83 3E 0359 R 00	        CMP POWERUP_COUNTER,0
 061E  0F 85 073D R		        JNZ continue2
 0622  80 3E 035E R 00		        CMP POWERUP_ON,0
 0627  0F 84 062F R		        JZ  DROW_POWERUP
 062B  0F 85 06CB R		        JNZ DELETE_POWERUP
 062F				DROW_POWERUP:		
				        DROWPRE_POWERUP
 062F  50                    2	    PUSH AX 
 0630  53                    2	    PUSH BX 
 0631  51                    2	    PUSH CX 
 0632  52                    2	    PUSH DX 
 0633  56                    1					PUSH SI 
 0634  57                    1					PUSH DI 
 0635  80 36 0356 R 01       1					XOR byte ptr PO
				WERUP_XFLAG ,00000001B 
 063A  A0 035D R             1					mov al,POWERUP_
				color 
 063D  05 0001               1					ADD AX,1 
 0640  A2 035D R             1					MOV POWERUP_col
				or,AL 
 0643  80 3E 035D R 05       1					cmp POWERUP_col
				or,5 
 0648  0F 85 0651 R          1					jnz ??0036 
 064C  C6 06 035D R 01       1					mov POWERUP_col
				or,1 
 0651                        1					??0036 : 
 0651  33 D2                 2			xor dx,dx            ; Compute 
				randval(DX) mod 10 to get num 
 0653  BB 0030               2			mov bx,30H            ;     bet
				ween 0 and 9 
 0656  F7 F3                 2			div bx               ; Divide d
				x:ax by bx 
 0658  8B C2                 2	        MOV Ax,DX 
 065A  8B 1E 0357 R          1					MOV BX,POWERUP_
				fy 
 065E  03 D8                 1					ADD BX,AX 
Microsoft (R) Macro Assembler Version 5.10                  12/22/19 22:44:1
                                                             Page     1-48


 0660  81 FB 0082            1					CMP BX,POWERUP_
				MAXY 
 0664  0F 82 066B R          1					JB ??0035 
 0668  BB 0011               1					MOV BX,11H 
 066B                        1				??0035: 
 066B  89 1E 0357 R          1					MOV POWERUP_fy,
				BX 
 066F  B9 00CE               2	        mov cx,POWERUPR_fx 
 0672                        2	        ??0038: 
 0672  8B 16 0357 R          2	            mov DX, POWERUP_fy 
 0676  B3 08                 2	            mov Bl,POWERUP_LEN 
 0678  A0 035D R             2	            mov al,POWERUP_coloR ;Pixel color 
 067B  B4 0C                 2	            mov ah,0ch ;Draw Pixel Command 
 067D                        2	            ??0037: 
 067D  CD 10                 2	                int 10h 
 067F  83 C2 01              2	                add DX,1 
 0682  FE CB                 2	                dec bl 
 0684  75 F7                 2	            jnz ??0037 
 0686  41                    2	            inc cx 
 0687  81 F9 00D3            2	            cmp cx,POWERUPR_ex 
 068B  75 E5                 2	        jnz ??0038 
 068D  B9 005F               2	        mov cx,POWERUPL_fx 
 0690                        2	        ??003A: 
 0690  8B 16 0357 R          2	            mov DX, POWERUP_fy 
 0694  B3 08                 2	            mov Bl,POWERUP_LEN 
 0696  A0 035D R             2	            mov al,POWERUP_coloR ;Pixel color 
 0699  B4 0C                 2	            mov ah,0ch ;Draw Pixel Command 
 069B                        2	            ??0039: 
 069B  CD 10                 2	                int 10h 
 069D  83 C2 01              2	                add DX,1 
 06A0  FE CB                 2	                dec bl 
 06A2  75 F7                 2	            jnz ??0039 
 06A4  41                    2	            inc cx 
 06A5  83 F9 65              2	            cmp cx,POWERUPL_ex 
 06A8  75 E6                 2	        jnz ??003A 
 06AA  C6 06 035F R 01       1					MOV POWERUP_L_I
				S_DRAWN,1 
 06AF  C6 06 0360 R 01       1					MOV POWERUP_R_I
				S_DRAWN,1 
 06B4  66| C7 06 0359 R 0003F1FF				MOV POWERUP_COU
				NTER,POWERUP_TODELETE 
 06BD  C6 06 035E R 01       1					MOV POWERUP_ON,
				1 
 06C2  5F                    1					POP DI 
 06C3  5E                    1					POP SI 
 06C4  5A                    2	    POP DX 
 06C5  59                    2	    POP CX 
 06C6  5B                    2	    POP BX 
 06C7  58                    2	    POP AX 
 06C8  EB 73 90			        JMP continue2
 06CB				DELETE_POWERUP:
				        DELETEP_POWERUP
 06CB  50                    2	    PUSH AX 
 06CC  53                    2	    PUSH BX 
Microsoft (R) Macro Assembler Version 5.10                  12/22/19 22:44:1
                                                             Page     1-49


 06CD  51                    2	    PUSH CX 
 06CE  52                    2	    PUSH DX 
 06CF  56                    1					PUSH SI 
 06D0  57                    1					PUSH DI 
 06D1  80 3E 035F R 01       1					CMP POWERUP_L_I
				S_DRAWN,1 
 06D6  0F 85 06FB R          1					JNZ ??003B 
 06DA  B9 005F               2	        mov cx,POWERUPL_fx 
 06DD                        2	        ??003E: 
 06DD  8B 16 0357 R          2	            mov DX, POWERUP_fy 
 06E1  B3 08                 2	            mov Bl,POWERUP_LEN 
 06E3  B0 00                 2	            mov al,00H ;Pixel color 
 06E5  B4 0C                 2	            mov ah,0ch ;Draw Pixel Command 
 06E7                        2	            ??003D: 
 06E7  CD 10                 2	                int 10h 
 06E9  83 C2 01              2	                add DX,1 
 06EC  FE CB                 2	                dec bl 
 06EE  75 F7                 2	            jnz ??003D 
 06F0  41                    2	            inc cx 
 06F1  83 F9 65              2	            cmp cx,POWERUPL_ex 
 06F4  75 E7                 2	        jnz ??003E 
 06F6  C6 06 035F R 00       1					MOV POWERUP_L_I
				S_DRAWN,0 
 06FB                        1	??003B: 
 06FB  80 3E 0360 R 01       1					CMP POWERUP_R_I
				S_DRAWN,1 
 0700  0F 85 0726 R          1					JNZ ??003C 
 0704  B9 00CE               2	        mov cx,POWERUPR_fx 
 0707                        2	        ??0040: 
 0707  8B 16 0357 R          2	            mov DX, POWERUP_fy 
 070B  B3 08                 2	            mov Bl,POWERUP_LEN 
 070D  B0 00                 2	            mov al,00H ;Pixel color 
 070F  B4 0C                 2	            mov ah,0ch ;Draw Pixel Command 
 0711                        2	            ??003F: 
 0711  CD 10                 2	                int 10h 
 0713  83 C2 01              2	                add DX,1 
 0716  FE CB                 2	                dec bl 
 0718  75 F7                 2	            jnz ??003F 
 071A  41                    2	            inc cx 
 071B  81 F9 00D3            2	            cmp cx,POWERUPR_ex 
 071F  75 E6                 2	        jnz ??0040 
 0721  C6 06 0360 R 00       1					MOV POWERUP_R_I
				S_DRAWN,0 
 0726                        1	??003C: 
 0726  66| C7 06 0359 R 0003F1FF				MOV POWERUP_COU
				NTER,POWERUP_TODROW 
 072F  C6 06 035E R 00       1					MOV POWERUP_ON,
				0 
 0734  5F                    1					POP DI 
 0735  5E                    1					POP SI 
 0736  5A                    2	    POP DX 
 0737  59                    2	    POP CX 
 0738  5B                    2	    POP BX 
 0739  58                    2	    POP AX 
Microsoft (R) Macro Assembler Version 5.10                  12/22/19 22:44:1
                                                             Page     1-50


 073A  EB 01 90			        JMP continue2			
 073D				continue2:
 073D  66| FF 0E 0364 R		        DEC ROCKET_COUNTER
 0742  66| 83 3E 0364 R 00	        CMP ROCKET_COUNTER,0
 0748  0F 85 0868 R		        JNZ continue0
 074C  80 3E 0369 R 00		        CMP ROCKET_ON,0
 0751  0F 84 0759 R		        JZ   DROW_ROCKET
 0755  0F 85 0800 R		        JNZ DELETE_ROCKET		
 0759				DROW_ROCKET:		
				        DROWPRE_ROCKET
 0759  50                    2	    PUSH AX 
 075A  53                    2	    PUSH BX 
 075B  51                    2	    PUSH CX 
 075C  52                    2	    PUSH DX 
 075D  56                    1					PUSH SI 
 075E  57                    1					PUSH DI 
 075F  80 3E 0008 R 02       1					CMP GAME_LEVEL 
				,2 
 0764  0F 85 077F R          1					JNZ ROCKET_ONEL
				Y 
 0768  A0 0368 R             1					mov al,rocket_c
				olor 
 076B  05 0001               1					ADD AX,1 
 076E  A2 0368 R             1					MOV rocket_colo
				r,AL 
 0771  80 3E 0368 R 0E       1					cmp rocket_colo
				r,0eh 
 0776  0F 85 077F R          1					jnz ??0044 
 077A  C6 06 0368 R 0C       1					mov rocket_colo
				r,0ch 
 077F                        1					??0044 : 
 077F                        1			ROCKET_ONELY: 
 077F  80 36 0361 R 01       1					XOR byte ptr RO
				CKET_XFLAG ,00000001B 
 0784  33 D2                 2			xor dx,dx            ; Compute 
				randval(DX) mod 10 to get num 
 0786  BB 0030               2			mov bx,30H            ;     bet
				ween 0 and 9 
 0789  F7 F3                 2			div bx               ; Divide d
				x:ax by bx 
 078B  8B C2                 2	        MOV Ax,DX 
 078D  05 0007               1					ADD AX,07H 
 0790  8B 1E 0362 R          1					MOV BX,ROCKET_f
				y 
 0794  03 D8                 1					ADD BX,AX 
 0796  83 FB 6E              1					CMP BX,ROCKET_M
				AXY 
 0799  0F 82 07A0 R          1					JB ??0041 
 079D  BB 0011               1						MOV BX,
				11H 
 07A0                        1					??0041: 
 07A0  89 1E 0362 R          1						MOV ROC
				KET_fy,BX 
 07A4  B9 00E2               2	        mov cx,ROCKETR_fx 
Microsoft (R) Macro Assembler Version 5.10                  12/22/19 22:44:1
                                                             Page     1-51


 07A7                        2	        ??0046: 
 07A7  8B 16 0362 R          2	            mov DX, ROCKET_fy 
 07AB  B3 1C                 2	            mov Bl,ROCKET_LEN 
 07AD  A0 0368 R             2	            mov al,ROCKET_coloR ;Pixel color 
 07B0  B4 0C                 2	            mov ah,0ch ;Draw Pixel Command 
 07B2                        2	            ??0045: 
 07B2  CD 10                 2	                int 10h 
 07B4  83 C2 01              2	                add DX,1 
 07B7  FE CB                 2	                dec bl 
 07B9  75 F7                 2	            jnz ??0045 
 07BB  41                    2	            inc cx 
 07BC  81 F9 00E7            2	            cmp cx,ROCKETR_ex 
 07C0  75 E5                 2	        jnz ??0046 
 07C2  B9 004B               2	        mov cx,ROCKETL_fx 
 07C5                        2	        ??0048: 
 07C5  8B 16 0362 R          2	            mov DX, ROCKET_fy 
 07C9  B3 1C                 2	            mov Bl,ROCKET_LEN 
 07CB  A0 0368 R             2	            mov al,ROCKET_coloR ;Pixel color 
 07CE  B4 0C                 2	            mov ah,0ch ;Draw Pixel Command 
 07D0                        2	            ??0047: 
 07D0  CD 10                 2	                int 10h 
 07D2  83 C2 01              2	                add DX,1 
 07D5  FE CB                 2	                dec bl 
 07D7  75 F7                 2	            jnz ??0047 
 07D9  41                    2	            inc cx 
 07DA  83 F9 50              2	            cmp cx,ROCKETL_ex 
 07DD  75 E6                 2	        jnz ??0048 
 07DF  C6 06 036A R 01       1						MOV ROC
				K_L_IS_DRAWN,1 
 07E4  C6 06 036B R 01       1						MOV ROC
				K_R_IS_DRAWN,1 
 07E9                        1					??0043: 
 07E9  66| C7 06 0364 R 000FF1FF					MOV ROC
				KET_COUNTER,ROCKET_TODELETE 
 07F2  C6 06 0369 R 01       1						MOV ROC
				KET_ON,1 
 07F7  5F                    1						POP DI 
 07F8  5E                    1						POP SI 
 07F9  5A                    2	    POP DX 
 07FA  59                    2	    POP CX 
 07FB  5B                    2	    POP BX 
 07FC  58                    2	    POP AX 
 07FD  EB 69 90			        JMP continue0
 0800				DELETE_ROCKET:
				        DELETEP_ROCKET
 0800  50                    2	    PUSH AX 
 0801  53                    2	    PUSH BX 
 0802  51                    2	    PUSH CX 
 0803  52                    2	    PUSH DX 
 0804  56                    1					PUSH SI 
 0805  57                    1					PUSH DI 
 0806  80 3E 036A R 00       1					CMP ROCK_L_IS_D
				RAWN,0 
 080B  0F 84 082B R          1					JZ ??0049 
Microsoft (R) Macro Assembler Version 5.10                  12/22/19 22:44:1
                                                             Page     1-52


 080F  B9 004B               2	        mov cx,ROCKETL_fx 
 0812                        2	        ??004C: 
 0812  8B 16 0362 R          2	            mov DX, ROCKET_fy 
 0816  B3 1C                 2	            mov Bl,ROCKET_LEN 
 0818  B0 00                 2	            mov al,00H ;Pixel color 
 081A  B4 0C                 2	            mov ah,0ch ;Draw Pixel Command 
 081C                        2	            ??004B: 
 081C  CD 10                 2	                int 10h 
 081E  83 C2 01              2	                add DX,1 
 0821  FE CB                 2	                dec bl 
 0823  75 F7                 2	            jnz ??004B 
 0825  41                    2	            inc cx 
 0826  83 F9 50              2	            cmp cx,ROCKETL_ex 
 0829  75 E7                 2	        jnz ??004C 
 082B                        1	??0049: 
 082B  80 3E 036B R 00       1					CMP ROCK_R_IS_D
				RAWN,0 
 0830  0F 84 0851 R          1					JZ ??004A 
 0834  B9 00E2               2	        mov cx,ROCKETR_fx 
 0837                        2	        ??004E: 
 0837  8B 16 0362 R          2	            mov DX, ROCKET_fy 
 083B  B3 1C                 2	            mov Bl,ROCKET_LEN 
 083D  B0 00                 2	            mov al,00H ;Pixel color 
 083F  B4 0C                 2	            mov ah,0ch ;Draw Pixel Command 
 0841                        2	            ??004D: 
 0841  CD 10                 2	                int 10h 
 0843  83 C2 01              2	                add DX,1 
 0846  FE CB                 2	                dec bl 
 0848  75 F7                 2	            jnz ??004D 
 084A  41                    2	            inc cx 
 084B  81 F9 00E7            2	            cmp cx,ROCKETR_ex 
 084F  75 E6                 2	        jnz ??004E 
 0851                        1	??004A: 
 0851  66| C7 06 0364 R 000FF1FF				MOV ROCKET_COUN
				TER,ROCKET_TODROW 
 085A  C6 06 0369 R 00       1					MOV ROCKET_ON,0
				 
 085F  5F                    1					POP DI 
 0860  5E                    1					POP SI 
 0861  5A                    2	    POP DX 
 0862  59                    2	    POP CX 
 0863  5B                    2	    POP BX 
 0864  58                    2	    POP AX 
 0865  EB 01 90			        JMP continue0	
				
 0868				continue0:
 0868  80 3E 0008 R 01		        CMP GAME_LEVEL,1
 086D  0F 85 087A R		        JNZ CHK_BULL
 0871				continue1:
				        ; Moving Reflector and bullets
				        ; Cheking for Moving the Reflector
 0871  83 3E 0282 R 00		        CMP REFCTR,0
 0876  0F 84 0901 R		        JE  MVREFL_LB 
				        ; Checking for Moving Bullets and movin
Microsoft (R) Macro Assembler Version 5.10                  12/22/19 22:44:1
                                                             Page     1-53


				g them
 087A				CHK_BULL:
 087A  83 3E 0352 R 00		        CMP bullLCtr,0
 087F  0F 85 08F0 R		        JNE  DEC_CTRS_LB
 0883  C7 06 0352 R 00FF	        MOV bullLCtr,bullLSpeed
 0889  9A 108E ---- R		        CALL FAR PTR MVBULLSPROC
				        ; Here we check if it happens to be a w
				inner, then we exit the game function
 088E  80 3E 027E R 00		        CMP IsThereAWinner, 00h
 0893  0F 84 08F0 R		        JE DEC_CTRS_LB
 0897				EXIT_IF_F4:
				        CHECKKEY
 0897  B4 01                 1	    MOV AH,01H 
 0899  CD 16                 1	    INT 16H 
 089B  0F 84 08C8 R		        JZ CHECK_RECIEVE_F4
				        GETKEY
 089F  B4 00                 1	    MOV AH,0 
 08A1  CD 16                 1	    INT 16H 
				        COMPARE_KEY 03EH        ; f4 scan
 08A3  80 FC 3E              1	    CMP AH, 03EH 
 08A6  0F 85 08C8 R		        JNE CHECK_RECIEVE_F4
 08AA  C6 06 0002 R FD		        MOV CHAR1, 0FDH         ; MSG Code of f
				4
				        SENDMSG
 08AF  80 3E 0002 R 00       1	    CMP CHAR1,0 
 08B4  0F 84 08C7 R          1	    JZ ??0050 
 08B8  BA 03FD               1	    MOV DX,03FDH 
 08BB                        1	??004F: 
 08BB  EC                    1	    IN AL,DX            ; Line status register 
 08BC  A8 20                 1	    TEST AL,00100000B   ; Means NOT EMPTY 
 08BE  74 FB                 1	    JZ ??004F 
 08C0  BA 03F8               1	    MOV DX,3F8H         ; If empty, send CHAR1 
 08C3  A0 0002 R             1	    MOV AL,CHAR1 
 08C6  EE                    1	    OUT DX,AL 
 08C7                        1	??0050: 
 08C7  C3			        RET
 08C8				CHECK_RECIEVE_F4:
				        RECMSG
 08C8  BA 03FD               1	    MOV DX,03FDH    ; Check data is ready 
 08CB                        1	??0051: 
 08CB  EC                    1	    IN AL,DX 
 08CC  A8 01                 1	    TEST AL,1       ; Means READY 
 08CE  0F 85 08DA R          1	    JNZ ??0052 
 08D2  C6 06 0003 R 00       1	    MOV CHAR2,0 
 08D7  EB 08 90              1	    JMP ??0053 
 08DA                        1	??0052: 
 08DA  BA 03F8               1	    MOV DX,03F8H    ; If ready, recieve 
 08DD  EC                    1	    IN AL,DX 
 08DE  A2 0003 R             1	    MOV CHAR2,AL    ; Save the recieved char in
				 CHAR2 
 08E1                        1	??0053: 
				        COMPARE_MSG 0
 08E1  80 3E 0003 R 00       1		CMP CHAR2, 0 
 08E6  74 AF			        JZ EXIT_IF_F4
Microsoft (R) Macro Assembler Version 5.10                  12/22/19 22:44:1
                                                             Page     1-54


				
				        COMPARE_MSG 0FDH        ;MSG code for f
				4
 08E8  80 3E 0003 R FD       1		CMP CHAR2, 0FDH 
 08ED  75 A8			        JNZ EXIT_IF_F4
 08EF  C3			        RET
				        ; Decrementing speed counter
 08F0				DEC_CTRS_LB:
 08F0  FF 0E 0282 R		        DEC REFCTR
 08F4  FF 0E 0352 R		        DEC bullLCtr
 08F8  FF 0E 0354 R		        DEC bullRCtr
 08FC  EA 09A0 ---- R		        JMP FAR PTR USER_INP
				
				        ; Moving Reflector Branch
 0901				MVREFL_LB:
				        MVREFL
 0901  C7 06 0282 R 0FFF     1	        MOV REFCTR, REFSPEED 
 0907  80 3E 0281 R 00       1	        CMP REFflag,0 
 090C  0F 84 0955 R          1	        JE  MV_UP 
 0910  83 3E 027F R 54       2	    CMP REFfristY,84D 
 0915  0F 84 094C R          2	    JE INV_UP_DN 
 0919  B9 0097               4				MOV CX,REFfristX 
 091C  8B 16 027F R          4				MOV DX,REFfristY 
 0920  B0 00                 4				mov al,BGCOLOR ;Pixel c
				olor 
 0922  B4 0C                 4				mov ah,0ch ;Draw Pixel 
				Command 
 0924                        4				??0054: 
 0924  CD 10                 4				 INT 10H 
 0926  41                    4				 INC CX 
 0927  81 F9 009C            4				CMP CX,REFendX 
 092B  75 F7                 4				JNZ ??0054 
 092D  A1 027F R             3				mov ax, REFfristY 
 0930  40                    3				inc ax 
 0931  A3 027F R             3				mov REFfristY,AX 
 0934  05 003B               3				ADD AX,REFLECTORlen-1 
 0937  B9 0097               4				MOV CX,REFfristX 
 093A  8B D0                 4				MOV DX,AX 
 093C  B0 56                 4				mov al,REFLECTORCOLOR ;
				Pixel color 
 093E  B4 0C                 4				mov ah,0ch ;Draw Pixel 
				Command 
 0940                        4				??0055: 
 0940  CD 10                 4				 INT 10H 
 0942  41                    4				 INC CX 
 0943  81 F9 009C            4				CMP CX,REFendX 
 0947  75 F7                 4				JNZ ??0055 
 0949  EB 06 90              2	    JMP DN_OUT_LB 
 094C                        2	INV_UP_DN: INVERTREF 
 094C  80 36 0281 R 01       3	    XOR byte ptr REFflag,00000001B 
 0951  90                    2	DN_OUT_LB: NOP 
 0952  EB 48 90              1	        JMP REF_END_LB 
 0955                        1	MV_UP:  REFMVUP 
 0955  83 3E 027F R 01       2	    CMP REFfristY,1 
Microsoft (R) Macro Assembler Version 5.10                  12/22/19 22:44:1
                                                             Page     1-55


 095A  0F 84 0996 R          2	    JE INV_UP_LB 
 095E  A1 027F R             3				mov ax,REFfristY 
 0961  05 003B               3				ADD AX,REFLECTORlen-1 
 0964  B9 0097               4				MOV CX,REFfristX 
 0967  8B D0                 4				MOV DX,AX 
 0969  B0 00                 4				mov al,BGCOLOR ;Pixel c
				olor 
 096B  B4 0C                 4				mov ah,0ch ;Draw Pixel 
				Command 
 096D                        4				??0056: 
 096D  CD 10                 4				 INT 10H 
 096F  41                    4				 INC CX 
 0970  81 F9 009C            4				CMP CX,REFendX 
 0974  75 F7                 4				JNZ ??0056 
 0976  A1 027F R             3				mov ax,REFfristY 
 0979  2D 0001               3				sub ax,1 
 097C  A3 027F R             3				mov REFfristY,ax 
 097F  B9 0097               4				MOV CX,REFfristX 
 0982  8B 16 027F R          4				MOV DX,REFfristY 
 0986  B0 56                 4				mov al,REFLECTORCOLOR ;
				Pixel color 
 0988  B4 0C                 4				mov ah,0ch ;Draw Pixel 
				Command 
 098A                        4				??0057: 
 098A  CD 10                 4				 INT 10H 
 098C  41                    4				 INC CX 
 098D  81 F9 009C            4				CMP CX,REFendX 
 0991  75 F7                 4				JNZ ??0057 
 0993  EB 06 90              2	    JMP UP_OUT_LB 
 0996                        2	INV_UP_LB: INVERTREF 
 0996  80 36 0281 R 01       3	    XOR byte ptr REFflag,00000001B 
 099B  90                    2	UP_OUT_LB: NOP 
 099C  90                    1	REF_END_LB: NOP 
 099D  E9 087A R		        JMP CHK_BULL
				
				        ; Branch of handling User Input
 09A0				USER_INP:
				        CHECKKEY
 09A0  B4 01                 1	    MOV AH,01H 
 09A2  CD 16                 1	    INT 16H 
 09A4  0F 84 0BF0 R		        JZ ENDINP1
				        GETKEY
 09A8  B4 00                 1	    MOV AH,0 
 09AA  CD 16                 1	    INT 16H 
				        ; Handle Pause and stop clicks
				        COMPARE_KEY 03EH        ; Scan code for
				 f4
 09AC  80 FC 3E              1	    CMP AH, 03EH 
 09AF  0F 85 09D9 R		        JNE CHK_PAUSE
 09B3  C6 06 0002 R FD		        MOV CHAR1,0FDH
					SENDMSG
 09B8  80 3E 0002 R 00       1	    CMP CHAR1,0 
 09BD  0F 84 09D0 R          1	    JZ ??0059 
 09C1  BA 03FD               1	    MOV DX,03FDH 
Microsoft (R) Macro Assembler Version 5.10                  12/22/19 22:44:1
                                                             Page     1-56


 09C4                        1	??0058: 
 09C4  EC                    1	    IN AL,DX            ; Line status register 
 09C5  A8 20                 1	    TEST AL,00100000B   ; Means NOT EMPTY 
 09C7  74 FB                 1	    JZ ??0058 
 09C9  BA 03F8               1	    MOV DX,3F8H         ; If empty, send CHAR1 
 09CC  A0 0002 R             1	    MOV AL,CHAR1 
 09CF  EE                    1	    OUT DX,AL 
 09D0                        1	??0059: 
 09D0  E8 0F8A R		        CALL DRWWINNER
 09D3  C6 06 027E R 01		        MOV IsThereAWinner,1
 09D8  C3			        RET                     ; Ends the game
				 if f4 is clicked
 09D9				CHK_PAUSE:
				        COMPARE_KEY 03BH        ; Scan code of 
				f1
 09D9  80 FC 3B              1	    CMP AH, 03BH 
 09DC  0F 85 0A66 R		        JNE GO
 09E0  C6 06 0002 R FF		        MOV CHAR1,0FFH
				        SENDMSG
 09E5  80 3E 0002 R 00       1	    CMP CHAR1,0 
 09EA  0F 84 09FD R          1	    JZ ??005B 
 09EE  BA 03FD               1	    MOV DX,03FDH 
 09F1                        1	??005A: 
 09F1  EC                    1	    IN AL,DX            ; Line status register 
 09F2  A8 20                 1	    TEST AL,00100000B   ; Means NOT EMPTY 
 09F4  74 FB                 1	    JZ ??005A 
 09F6  BA 03F8               1	    MOV DX,3F8H         ; If empty, send CHAR1 
 09F9  A0 0002 R             1	    MOV AL,CHAR1 
 09FC  EE                    1	    OUT DX,AL 
 09FD                        1	??005B: 
				        PAUSE
 09FD                        1	??005D: 
 09FD  B4 01                 2	    MOV AH,01H 
 09FF  CD 16                 2	    INT 16H 
 0A01  0F 84 0A30 R          1			JZ ??005E 
 0A05  B4 00                 2	    MOV AH,0 
 0A07  CD 16                 2	    INT 16H 
 0A09  80 FC 3B              2	    CMP AH, 03BH 
 0A0C  0F 85 0A30 R          1	        JNE ??005E 
 0A10  C6 06 0002 R FF       1			MOV CHAR1, 0FFH 
 0A15  80 3E 0002 R 00       2	    CMP CHAR1,0 
 0A1A  0F 84 0A2D R          2	    JZ ??0060 
 0A1E  BA 03FD               2	    MOV DX,03FDH 
 0A21                        2	??005F: 
 0A21  EC                    2	    IN AL,DX            ; Line status register 
 0A22  A8 20                 2	    TEST AL,00100000B   ; Means NOT EMPTY 
 0A24  74 FB                 2	    JZ ??005F 
 0A26  BA 03F8               2	    MOV DX,3F8H         ; If empty, send CHAR1 
 0A29  A0 0002 R             2	    MOV AL,CHAR1 
 0A2C  EE                    2	    OUT DX,AL 
 0A2D                        2	??0060: 
 0A2D  EB 28 90              1			JMP ??005C 
 0A30                        1	??005E: 
 0A30  BA 03FD               2	    MOV DX,03FDH    ; Check data is ready 
Microsoft (R) Macro Assembler Version 5.10                  12/22/19 22:44:1
                                                             Page     1-57


 0A33                        2	??0061: 
 0A33  EC                    2	    IN AL,DX 
 0A34  A8 01                 2	    TEST AL,1       ; Means READY 
 0A36  0F 85 0A42 R          2	    JNZ ??0062 
 0A3A  C6 06 0003 R 00       2	    MOV CHAR2,0 
 0A3F  EB 08 90              2	    JMP ??0063 
 0A42                        2	??0062: 
 0A42  BA 03F8               2	    MOV DX,03F8H    ; If ready, recieve 
 0A45  EC                    2	    IN AL,DX 
 0A46  A2 0003 R             2	    MOV CHAR2,AL    ; Save the recieved char in
				 CHAR2 
 0A49                        2	??0063: 
 0A49  80 3E 0003 R 00       2		CMP CHAR2, 0 
 0A4E  74 AD                 1			JZ ??005D 
 0A50  80 3E 0003 R FF       2		CMP CHAR2, 0FFH 
 0A55  75 A6                 1	        JNE ??005D 
 0A57                        1	??005C: 
 0A57  33 C0                 1			XOR AX,AX 
 0A59  C6 06 0002 R 00		        MOV CHAR1, 0
 0A5E  C6 06 0003 R 00		        MOV CHAR2, 0
 0A63  E9 0609 R		        JMP GM_LP
				
				        ; Handle click of first player
 0A66				GO:     COMPARE_KEY  72   ; Scan code for UP ar
				row
 0A66  80 FC 48              1	    CMP AH, 72 
 0A69  0F 85 0AF2 R		        JNE CHECK_DOWN_1
 0A6D  C6 06 0002 R FC		        MOV CHAR1,0FCH
				        MVSH1UP
 0A72  50                    1		push ax 
 0A73  33 C0                 1		xor ax,ax 
 0A75  A1 0266 R             1		mov ax,Ship1_Speed 
 0A78                        1		??0065: 
 0A78  83 3E 026C R 01       1		CMP SH1P1FY,1  ;if it is in the upper p
				ossible y 
 0A7D  0F 84 0AEE R          1	    JZ ??0064 
 0A81  50                    1		push ax 
 0A82  A1 026C R             2				mov ax,sh1p1fy 
 0A85  05 001D               2				ADD AX,ShipSizep1y-1 
 0A88  B9 0005               3				MOV CX,sh1p1fx 
 0A8B  8B D0                 3				MOV DX,AX 
 0A8D  B0 00                 3				mov al,BGCOLOR ;Pixel c
				olor 
 0A8F  B4 0C                 3				mov ah,0ch ;Draw Pixel 
				Command 
 0A91                        3				??0066: 
 0A91  CD 10                 3				 INT 10H 
 0A93  41                    3				 INC CX 
 0A94  83 F9 0F              3				CMP CX,sh1p1ENDx 
 0A97  75 F8                 3				JNZ ??0066 
 0A99  A1 026C R             2				mov ax,sh1p1fy 
 0A9C  2D 0001               2				sub ax,1 
 0A9F  A3 026C R             2				mov sh1p1fy,ax 
 0AA2  B9 0005               3				MOV CX,sh1p1fx 
Microsoft (R) Macro Assembler Version 5.10                  12/22/19 22:44:1
                                                             Page     1-58


 0AA5  8B 16 026C R          3				MOV DX,sh1p1fy 
 0AA9  A0 0214 R             3				mov al,ship1color ;Pixe
				l color 
 0AAC  B4 0C                 3				mov ah,0ch ;Draw Pixel 
				Command 
 0AAE                        3				??0067: 
 0AAE  CD 10                 3				 INT 10H 
 0AB0  41                    3				 INC CX 
 0AB1  83 F9 0F              3				CMP CX,sh1p1ENDx 
 0AB4  75 F8                 3				JNZ ??0067 
 0AB6  A1 026E R             2				mov ax,sh1p2fy 
 0AB9  05 0007               2				ADD AX,ShipSizep2y-1 
 0ABC  B9 0010               3				MOV CX,sh1p2fx 
 0ABF  8B D0                 3				MOV DX,AX 
 0AC1  B0 00                 3				mov al,BGCOLOR ;Pixel c
				olor 
 0AC3  B4 0C                 3				mov ah,0ch ;Draw Pixel 
				Command 
 0AC5                        3				??0068: 
 0AC5  CD 10                 3				 INT 10H 
 0AC7  41                    3				 INC CX 
 0AC8  83 F9 15              3				CMP CX,sh1p2ENDx 
 0ACB  75 F8                 3				JNZ ??0068 
 0ACD  A1 026E R             2				mov ax,sh1p2fy 
 0AD0  2D 0001               2				sub ax,1 
 0AD3  A3 026E R             2				mov sh1p2fy,ax 
 0AD6  B9 0010               3				MOV CX,sh1p2fx 
 0AD9  8B 16 026E R          3				MOV DX,sh1p2fy 
 0ADD  A0 0214 R             3				mov al,ship1color ;Pixe
				l color 
 0AE0  B4 0C                 3				mov ah,0ch ;Draw Pixel 
				Command 
 0AE2                        3				??0069: 
 0AE2  CD 10                 3				 INT 10H 
 0AE4  41                    3				 INC CX 
 0AE5  83 F9 15              3				CMP CX,sh1p2ENDx 
 0AE8  75 F8                 3				JNZ ??0069 
 0AEA  58                    1		pop ax 
 0AEB  48                    1		dec ax 
 0AEC  75 8A                 1		jnz ??0065 
 0AEE  90                    1	    ??0064: NOP 
 0AEF  E9 0BD8 R		        JMP SENDINP1
 0AF2				CHECK_DOWN_1:
				        COMPARE_KEY  80   ; Scan code for DOWN 
				arrow
 0AF2  80 FC 50              1	    CMP AH, 80 
 0AF5  0F 85 0B74 R		        JNE CHECK_RIGHT_1
 0AF9  C6 06 0002 R FB		        MOV CHAR1,0FBH
				        MVSH1DOWN
 0AFE  50                    1		push ax 
 0AFF  33 C0                 1		xor ax,ax 
 0B01  A1 0266 R             1		mov ax,Ship1_Speed 
 0B04                        1		??006B: 
 0B04  83 3E 026C R 73       1	    CMP SH1P1FY,115 ;if it is in the end possib
Microsoft (R) Macro Assembler Version 5.10                  12/22/19 22:44:1
                                                             Page     1-59


				le y 
 0B09  0F 84 0B70 R          1	    JZ ??006A 
 0B0D  50                    1		push ax 
 0B0E  B9 0005               3				MOV CX,sh1p1fx 
 0B11  8B 16 026C R          3				MOV DX,sh1p1fy 
 0B15  B0 00                 3				mov al,BGCOLOR ;Pixel c
				olor 
 0B17  B4 0C                 3				mov ah,0ch ;Draw Pixel 
				Command 
 0B19                        3				??006C: 
 0B19  CD 10                 3				 INT 10H 
 0B1B  41                    3				 INC CX 
 0B1C  83 F9 0F              3				CMP CX,sh1p1ENDx 
 0B1F  75 F8                 3				JNZ ??006C 
 0B21  A1 026C R             2				mov ax, sh1p1fy 
 0B24  40                    2				inc ax 
 0B25  A3 026C R             2				mov sh1p1fy,AX 
 0B28  05 001D               2				ADD AX,ShipSizep1y-1 
 0B2B  B9 0005               3				MOV CX,sh1p1fx 
 0B2E  8B D0                 3				MOV DX,AX 
 0B30  A0 0214 R             3				mov al,ship1color ;Pixe
				l color 
 0B33  B4 0C                 3				mov ah,0ch ;Draw Pixel 
				Command 
 0B35                        3				??006D: 
 0B35  CD 10                 3				 INT 10H 
 0B37  41                    3				 INC CX 
 0B38  83 F9 0F              3				CMP CX,sh1p1ENDx 
 0B3B  75 F8                 3				JNZ ??006D 
 0B3D  B9 0010               3				MOV CX,sh1p2fx 
 0B40  8B 16 026E R          3				MOV DX,sh1p2fy 
 0B44  B0 00                 3				mov al,BGCOLOR ;Pixel c
				olor 
 0B46  B4 0C                 3				mov ah,0ch ;Draw Pixel 
				Command 
 0B48                        3				??006E: 
 0B48  CD 10                 3				 INT 10H 
 0B4A  41                    3				 INC CX 
 0B4B  83 F9 15              3				CMP CX,sh1p2ENDx 
 0B4E  75 F8                 3				JNZ ??006E 
 0B50  A1 026E R             2				mov ax, sh1p2fy 
 0B53  40                    2				inc ax 
 0B54  A3 026E R             2				mov sh1p2fy,AX 
 0B57  05 0007               2				ADD AX,ShipSizep2y-1 
 0B5A  B9 0010               3				MOV CX,sh1p2fx 
 0B5D  8B D0                 3				MOV DX,AX 
 0B5F  A0 0214 R             3				mov al,ship1color ;Pixe
				l color 
 0B62  B4 0C                 3				mov ah,0ch ;Draw Pixel 
				Command 
 0B64                        3				??006F: 
 0B64  CD 10                 3				 INT 10H 
 0B66  41                    3				 INC CX 
 0B67  83 F9 15              3				CMP CX,sh1p2ENDx 
Microsoft (R) Macro Assembler Version 5.10                  12/22/19 22:44:1
                                                             Page     1-60


 0B6A  75 F8                 3				JNZ ??006F 
 0B6C  58                    1		pop ax 
 0B6D  48                    1		dec ax 
 0B6E  75 94                 1		jnz ??006B 
 0B70  90                    1		??006A: NOP 
 0B71  EB 65 90			        JMP SENDINP1
 0B74				CHECK_RIGHT_1:
				        COMPARE_KEY 04DH   ; Scan code for Righ
				t arrow
 0B74  80 FC 4D              1	    CMP AH, 04DH 
 0B77  0F 85 0BD2 R		        JNE PRINT_CHAR1
 0B7B  C6 06 0002 R FA		        MOV CHAR1, 0FAH 
				        ADDBULL
 0B80  81 3D FEFE            1	        CMP [DI],0FEFEH  ; Reached the end of t
				he array then no drawing 
 0B84  0F 84 0BCE R          1	        JE  ??0070 
 0B88  B9 0015               1	        MOV CX,sh1p2ENDx 
 0B8B  8B 16 026E R          1	        MOV DX,sh1p2fy 
 0B8F  41                    1	        INC CX 
 0B90  83 C2 02              1	        ADD DX,2 
 0B93  80 3E 0270 R 19       1	        CMP p1_bulls,25D      ; If the bullet c
				ount reached the maximum, then no draw 
 0B98  0F 84 0BCE R          1	        JE  ??0070 
 0B9C  FE 06 0270 R          1	        INC p1_bulls          ; Passed all chec
				ks !! Which means we can draw left bullet 
 0BA0  89 0D                 2	        MOV [DI], CX    ; Stores X position 
 0BA2  89 55 02              2	        MOV [DI+2], DX    ; Stores Y position 
 0BA5  8B F1                 2	        MOV SI,CX 
 0BA7  83 C6 14              2	        ADD SI,buW 
 0BAA                        2	??0071:  DRWPX 0FH     ;DRAW PIXEL ON LINE ONE 
 0BAA  B0 0F                 3	    MOV AL,0FH 
 0BAC  B4 0C                 3	    MOV AH,0CH 
 0BAE  CD 10                 3	    INT 10H 
 0BB0  42                    2	        INC DX              ;GO DOWN A LINE 
 0BB1  B0 0F                 3	    MOV AL,0FH 
 0BB3  B4 0C                 3	    MOV AH,0CH 
 0BB5  CD 10                 3	    INT 10H 
 0BB7  42                    2	        INC DX              ;GO DOWN A LINE 
 0BB8  B0 0F                 3	    MOV AL,0FH 
 0BBA  B4 0C                 3	    MOV AH,0CH 
 0BBC  CD 10                 3	    INT 10H 
 0BBE  83 EA 02              2	        SUB DX,2 
 0BC1  41                    2	        INC CX 
 0BC2  3B CE                 2	        CMP CX,SI 
 0BC4  75 E4                 2	        JNE ??0071 
 0BC6  81 65 02 7FFF         1	        AND [DI+2], 7FFFH 
 0BCB  83 C7 04              1	        ADD DI,4 
 0BCE  90                    1	??0070: NOP 
 0BCF  EB 07 90			        JMP SENDINP1
 0BD2				PRINT_CHAR1:
 0BD2  A2 0002 R		        MOV CHAR1,AL
 0BD5  E8 18D4 R		        CALL PRINTCHARCHAT1
 0BD8				SENDINP1:
				        SENDMSG
Microsoft (R) Macro Assembler Version 5.10                  12/22/19 22:44:1
                                                             Page     1-61


 0BD8  80 3E 0002 R 00       1	    CMP CHAR1,0 
 0BDD  0F 84 0BF0 R          1	    JZ ??0073 
 0BE1  BA 03FD               1	    MOV DX,03FDH 
 0BE4                        1	??0072: 
 0BE4  EC                    1	    IN AL,DX            ; Line status register 
 0BE5  A8 20                 1	    TEST AL,00100000B   ; Means NOT EMPTY 
 0BE7  74 FB                 1	    JZ ??0072 
 0BE9  BA 03F8               1	    MOV DX,3F8H         ; If empty, send CHAR1 
 0BEC  A0 0002 R             1	    MOV AL,CHAR1 
 0BEF  EE                    1	    OUT DX,AL 
 0BF0                        1	??0073: 
 0BF0				ENDINP1:
				        RECMSG
 0BF0  BA 03FD               1	    MOV DX,03FDH    ; Check data is ready 
 0BF3                        1	??0074: 
 0BF3  EC                    1	    IN AL,DX 
 0BF4  A8 01                 1	    TEST AL,1       ; Means READY 
 0BF6  0F 85 0C02 R          1	    JNZ ??0075 
 0BFA  C6 06 0003 R 00       1	    MOV CHAR2,0 
 0BFF  EB 08 90              1	    JMP ??0076 
 0C02                        1	??0075: 
 0C02  BA 03F8               1	    MOV DX,03F8H    ; If ready, recieve 
 0C05  EC                    1	    IN AL,DX 
 0C06  A2 0003 R             1	    MOV CHAR2,AL    ; Save the recieved char in
				 CHAR2 
 0C09                        1	??0076: 
 0C09  80 3E 0003 R 00		        CMP CHAR2,0
 0C0E  0F 84 0E07 R		        JZ  ENDINP2
				        COMPARE_MSG 0FDH        ; MSG code for 
				f4
 0C12  80 3E 0003 R FD       1		CMP CHAR2, 0FDH 
 0C17  0F 85 0C24 R		        JNE CHK_PAUSE2
 0C1B  E8 0F8A R		        CALL DRWWINNER
 0C1E  C6 06 027E R 01			MOV IsThereAWinner,1
 0C23  C3			        RET                     ; Ends the game
				 if f4 is clicked
 0C24				CHK_PAUSE2:
				        COMPARE_MSG 0FFH        ; MSG code of f
				1
 0C24  80 3E 0003 R FF       1		CMP CHAR2, 0FFH 
 0C29  0F 85 0C96 R		        JNE GO2
				        PAUSE
 0C2D                        1	??0078: 
 0C2D  B4 01                 2	    MOV AH,01H 
 0C2F  CD 16                 2	    INT 16H 
 0C31  0F 84 0C60 R          1			JZ ??0079 
 0C35  B4 00                 2	    MOV AH,0 
 0C37  CD 16                 2	    INT 16H 
 0C39  80 FC 3B              2	    CMP AH, 03BH 
 0C3C  0F 85 0C60 R          1	        JNE ??0079 
 0C40  C6 06 0002 R FF       1			MOV CHAR1, 0FFH 
 0C45  80 3E 0002 R 00       2	    CMP CHAR1,0 
 0C4A  0F 84 0C5D R          2	    JZ ??007B 
 0C4E  BA 03FD               2	    MOV DX,03FDH 
Microsoft (R) Macro Assembler Version 5.10                  12/22/19 22:44:1
                                                             Page     1-62


 0C51                        2	??007A: 
 0C51  EC                    2	    IN AL,DX            ; Line status register 
 0C52  A8 20                 2	    TEST AL,00100000B   ; Means NOT EMPTY 
 0C54  74 FB                 2	    JZ ??007A 
 0C56  BA 03F8               2	    MOV DX,3F8H         ; If empty, send CHAR1 
 0C59  A0 0002 R             2	    MOV AL,CHAR1 
 0C5C  EE                    2	    OUT DX,AL 
 0C5D                        2	??007B: 
 0C5D  EB 28 90              1			JMP ??0077 
 0C60                        1	??0079: 
 0C60  BA 03FD               2	    MOV DX,03FDH    ; Check data is ready 
 0C63                        2	??007C: 
 0C63  EC                    2	    IN AL,DX 
 0C64  A8 01                 2	    TEST AL,1       ; Means READY 
 0C66  0F 85 0C72 R          2	    JNZ ??007D 
 0C6A  C6 06 0003 R 00       2	    MOV CHAR2,0 
 0C6F  EB 08 90              2	    JMP ??007E 
 0C72                        2	??007D: 
 0C72  BA 03F8               2	    MOV DX,03F8H    ; If ready, recieve 
 0C75  EC                    2	    IN AL,DX 
 0C76  A2 0003 R             2	    MOV CHAR2,AL    ; Save the recieved char in
				 CHAR2 
 0C79                        2	??007E: 
 0C79  80 3E 0003 R 00       2		CMP CHAR2, 0 
 0C7E  74 AD                 1			JZ ??0078 
 0C80  80 3E 0003 R FF       2		CMP CHAR2, 0FFH 
 0C85  75 A6                 1	        JNE ??0078 
 0C87                        1	??0077: 
 0C87  33 C0                 1			XOR AX,AX 
 0C89  C6 06 0002 R 00		        MOV CHAR1,0
 0C8E  C6 06 0003 R 00		        MOV CHAR2,0
 0C93  E9 0609 R		        JMP GM_LP
				        ; Handle click of second player
 0C96				GO2:    COMPARE_MSG  0FCH   ; MSG code for UP a
				rrow
 0C96  80 3E 0003 R FC       1		CMP CHAR2, 0FCH 
 0C9B  0F 85 0D23 R		        JNE CHECK_DOWN_2
				        MVSH2UP
 0C9F  50                    1		push ax 
 0CA0  33 C0                 1		xor ax,ax 
 0CA2  A1 0272 R             1		mov ax,Ship2_Speed 
 0CA5                        1		??0080: 
 0CA5  83 3E 0278 R 01       1		CMP SH2P1FY,1  ;if it is in the upper p
				ossible y 
 0CAA  0F 84 0D1F R          1	    JZ ??007F 
 0CAE  50                    1		push ax 
 0CAF  A1 0278 R             2				mov ax,sh2p1fy 
 0CB2  05 001D               2				ADD AX,ShipSizep1y-1 
 0CB5  B9 012C               3				MOV CX,sh2p1fx 
 0CB8  8B D0                 3				MOV DX,AX 
 0CBA  B0 00                 3				mov al,BGCOLOR ;Pixel c
				olor 
 0CBC  B4 0C                 3				mov ah,0ch ;Draw Pixel 
				Command 
Microsoft (R) Macro Assembler Version 5.10                  12/22/19 22:44:1
                                                             Page     1-63


 0CBE                        3				??0081: 
 0CBE  CD 10                 3				 INT 10H 
 0CC0  41                    3				 INC CX 
 0CC1  81 F9 0136            3				CMP CX,sh2p1ENDx 
 0CC5  75 F7                 3				JNZ ??0081 
 0CC7  A1 0278 R             2				mov ax,sh2p1fy 
 0CCA  2D 0001               2				sub ax,1 
 0CCD  A3 0278 R             2				mov sh2p1fy,ax 
 0CD0  B9 012C               3				MOV CX,sh2p1fx 
 0CD3  8B 16 0278 R          3				MOV DX,sh2p1fy 
 0CD7  A0 0215 R             3				mov al,ship2color ;Pixe
				l color 
 0CDA  B4 0C                 3				mov ah,0ch ;Draw Pixel 
				Command 
 0CDC                        3				??0082: 
 0CDC  CD 10                 3				 INT 10H 
 0CDE  41                    3				 INC CX 
 0CDF  81 F9 0136            3				CMP CX,sh2p1ENDx 
 0CE3  75 F7                 3				JNZ ??0082 
 0CE5  A1 027A R             2				mov ax,sh2p2fy 
 0CE8  05 0007               2				ADD AX,ShipSizep2y-1 
 0CEB  B9 0126               3				MOV CX,sh2p2fx 
 0CEE  8B D0                 3				MOV DX,AX 
 0CF0  B0 00                 3				mov al,BGCOLOR ;Pixel c
				olor 
 0CF2  B4 0C                 3				mov ah,0ch ;Draw Pixel 
				Command 
 0CF4                        3				??0083: 
 0CF4  CD 10                 3				 INT 10H 
 0CF6  41                    3				 INC CX 
 0CF7  81 F9 012B            3				CMP CX,sh2p2ENDx 
 0CFB  75 F7                 3				JNZ ??0083 
 0CFD  A1 027A R             2				mov ax,sh2p2fy 
 0D00  2D 0001               2				sub ax,1 
 0D03  A3 027A R             2				mov sh2p2fy,ax 
 0D06  B9 0126               3				MOV CX,sh2p2fx 
 0D09  8B 16 027A R          3				MOV DX,sh2p2fy 
 0D0D  A0 0215 R             3				mov al,ship2color ;Pixe
				l color 
 0D10  B4 0C                 3				mov ah,0ch ;Draw Pixel 
				Command 
 0D12                        3				??0084: 
 0D12  CD 10                 3				 INT 10H 
 0D14  41                    3				 INC CX 
 0D15  81 F9 012B            3				CMP CX,sh2p2ENDx 
 0D19  75 F7                 3				JNZ ??0084 
 0D1B  58                    1		pop ax 
 0D1C  48                    1		dec ax 
 0D1D  75 86                 1		jnz ??0080 
 0D1F  90                    1	??007F: NOP 
 0D20  E9 0E07 R		        JMP ENDINP2
 0D23				CHECK_DOWN_2:
				        COMPARE_MSG  0FBH   ; MSG code for DOWN
				 arrow
Microsoft (R) Macro Assembler Version 5.10                  12/22/19 22:44:1
                                                             Page     1-64


 0D23  80 3E 0003 R FB       1		CMP CHAR2, 0FBH 
 0D28  0F 85 0DA6 R		        JNE CHECK_SPACE_2
				        MVSH2DOWN
 0D2C  50                    1		push ax 
 0D2D  33 C0                 1		xor ax,ax 
 0D2F  A1 0272 R             1		mov ax,Ship2_Speed 
 0D32                        1		??0087: 
 0D32  83 3E 0278 R 73       1	    CMP SH2P1FY,115  ;if it is in the end possi
				ble y 
 0D37  0F 84 0DA2 R          1	    JZ ??0085 
 0D3B  50                    1		push ax 
 0D3C  B9 012C               3				MOV CX,sh2p1fx 
 0D3F  8B 16 0278 R          3				MOV DX,sh2p1fy 
 0D43  B0 00                 3				mov al,BGCOLOR ;Pixel c
				olor 
 0D45  B4 0C                 3				mov ah,0ch ;Draw Pixel 
				Command 
 0D47                        3				??0088: 
 0D47  CD 10                 3				 INT 10H 
 0D49  41                    3				 INC CX 
 0D4A  81 F9 0136            3				CMP CX,sh2p1ENDx 
 0D4E  75 F7                 3				JNZ ??0088 
 0D50  A1 0278 R             2				mov ax, sh2p1fy 
 0D53  40                    2				inc ax 
 0D54  A3 0278 R             2				mov sh2p1fy,AX 
 0D57  05 001D               2				ADD AX,ShipSizep1y-1 
 0D5A  B9 012C               3				MOV CX,sh2p1fx 
 0D5D  8B D0                 3				MOV DX,AX 
 0D5F  A0 0215 R             3				mov al,ship2color ;Pixe
				l color 
 0D62  B4 0C                 3				mov ah,0ch ;Draw Pixel 
				Command 
 0D64                        3				??0089: 
 0D64  CD 10                 3				 INT 10H 
 0D66  41                    3				 INC CX 
 0D67  81 F9 0136            3				CMP CX,sh2p1ENDx 
 0D6B  75 F7                 3				JNZ ??0089 
 0D6D  B9 0126               3				MOV CX,sh2p2fx 
 0D70  8B 16 027A R          3				MOV DX,sh2p2fy 
 0D74  B0 00                 3				mov al,BGCOLOR ;Pixel c
				olor 
 0D76  B4 0C                 3				mov ah,0ch ;Draw Pixel 
				Command 
 0D78                        3				??008A: 
 0D78  CD 10                 3				 INT 10H 
 0D7A  41                    3				 INC CX 
 0D7B  81 F9 012B            3				CMP CX,sh2p2ENDx 
 0D7F  75 F7                 3				JNZ ??008A 
 0D81  A1 027A R             2				mov ax, sh2p2fy 
 0D84  40                    2				inc ax 
 0D85  A3 027A R             2				mov sh2p2fy,AX 
 0D88  05 0007               2				ADD AX,ShipSizep2y-1 
 0D8B  B9 0126               3				MOV CX,sh2p2fx 
 0D8E  8B D0                 3				MOV DX,AX 
Microsoft (R) Macro Assembler Version 5.10                  12/22/19 22:44:1
                                                             Page     1-65


 0D90  A0 0215 R             3				mov al,ship2color ;Pixe
				l color 
 0D93  B4 0C                 3				mov ah,0ch ;Draw Pixel 
				Command 
 0D95                        3				??008B: 
 0D95  CD 10                 3				 INT 10H 
 0D97  41                    3				 INC CX 
 0D98  81 F9 012B            3				CMP CX,sh2p2ENDx 
 0D9C  75 F7                 3				JNZ ??008B 
 0D9E  58                    1		pop ax 
 0D9F  48                    1		dec ax 
 0DA0  75 90                 1		jnz ??0087 
 0DA2  90                    1	??0085: NOP 
 0DA3  EB 62 90			        JMP ENDINP2
 0DA6				CHECK_SPACE_2:
				        COMPARE_MSG 0FAH   ; MSG code for Right
				 Arrow
 0DA6  80 3E 0003 R FA       1		CMP CHAR2, 0FAH 
 0DAB  0F 85 0E04 R		        JNE PRINT_CHAR2
				        ADDBULR
 0DAF  81 3D FEFE            1	        CMP [DI],0FEFEH  ; Reached the end of t
				he array then no drawing 
 0DB3  0F 84 0E00 R          1	        JE  ??008C 
 0DB7  B9 0126               1	        MOV CX,sh2p2fx 
 0DBA  8B 16 027A R          1	        MOV DX,sh2p2fy 
 0DBE  83 E9 14              1	        SUB CX,buW 
 0DC1  49                    1	        DEC CX 
 0DC2  83 C2 02              1	        ADD DX,2 
 0DC5  80 3E 027C R 19       1	        CMP p2_bulls,25D      ; If the bullet c
				ount reached the maximum, then no draw 
 0DCA  0F 84 0E00 R          1	        JE  ??008C 
 0DCE  FE 06 027C R          1	        INC p2_bulls         ; Passed all check
				s !! Which means we can draw right bullet 
 0DD2  89 0D                 2	        MOV [DI], CX    ; Stores X position 
 0DD4  89 55 02              2	        MOV [DI+2], DX    ; Stores Y position 
 0DD7  8B F1                 2	        MOV SI,CX 
 0DD9  83 C6 14              2	        ADD SI,buW 
 0DDC                        2	??008D:  DRWPX 0FH     ;DRAW PIXEL ON LINE ONE 
 0DDC  B0 0F                 3	    MOV AL,0FH 
 0DDE  B4 0C                 3	    MOV AH,0CH 
 0DE0  CD 10                 3	    INT 10H 
 0DE2  42                    2	        INC DX              ;GO DOWN A LINE 
 0DE3  B0 0F                 3	    MOV AL,0FH 
 0DE5  B4 0C                 3	    MOV AH,0CH 
 0DE7  CD 10                 3	    INT 10H 
 0DE9  42                    2	        INC DX              ;GO DOWN A LINE 
 0DEA  B0 0F                 3	    MOV AL,0FH 
 0DEC  B4 0C                 3	    MOV AH,0CH 
 0DEE  CD 10                 3	    INT 10H 
 0DF0  83 EA 02              2	        SUB DX,2 
 0DF3  41                    2	        INC CX 
 0DF4  3B CE                 2	        CMP CX,SI 
 0DF6  75 E4                 2	        JNE ??008D 
 0DF8  81 4D 02 8000         1	        OR  [DI+2], 8000H 
Microsoft (R) Macro Assembler Version 5.10                  12/22/19 22:44:1
                                                             Page     1-66


 0DFD  83 C7 04              1	        ADD DI,4        ; Move the array storag
				e pointer 
 0E00  90                    1	??008C: NOP 
 0E01  EB 04 90			        JMP ENDINP2
 0E04				PRINT_CHAR2:
 0E04  E8 194E R		        CALL PRINTCHARCHAT2
 0E07				ENDINP2:
 0E07  E9 0609 R		        JMP GM_LP
 0E0A  C3			        RET
 0E0B				SHOW_GAME ENDP
				
				;**********************************************
				***
				; ****  DRWINFO - Draws Players' Info ****
				; * USES :  AX, BX, CX, DX
				; * PARAMS :  NONE
				; *********************************************
				***
 0E0B				DRWINFO PROC
				        ; Drawing Borders
				        drow_thick_line BOARDER1FX,BOARDER1EX ,
				BOARDER1FY,BOARDERTHICK,BOARDSCOLOR  ; "dROW_TH
				ICK_line" IS MACRO TO DRAW UPPER BOARD
 0E0B  B9 0000               1	        mov cx,BOARDER1FX 
 0E0E                        1	        ??008F: 
 0E0E  BA 0091               1	            mov DX, BOARDER1FY 
 0E11  B3 02                 1	            mov Bl,BOARDERTHICK 
 0E13  B0 43                 1	            mov al,BOARDSCOLOR ;Pixel color 
 0E15  B4 0C                 1	            mov ah,0ch ;Draw Pixel Command 
 0E17                        1	            ??008E: 
 0E17  CD 10                 1	                int 10h 
 0E19  83 C2 01              1	                add DX,1 
 0E1C  FE CB                 1	                dec bl 
 0E1E  75 F7                 1	            jnz ??008E 
 0E20  41                    1	            inc cx 
 0E21  81 F9 0280            1	            cmp cx,BOARDER1EX 
 0E25  75 E7                 1	        jnz ??008F 
					drow_thick_line BOARDER1FX,BOARDER1EX,B
				OARDER1FY+15,BOARDERTHICK,BOARDSCOLOR  ; "dROW_
				THICK_line" IS MACRO TO DRAW MIDLE BOARD
 0E27  B9 0000               1	        mov cx,BOARDER1FX 
 0E2A                        1	        ??0091: 
 0E2A  BA 00A0               1	            mov DX, BOARDER1FY+15 
 0E2D  B3 02                 1	            mov Bl,BOARDERTHICK 
 0E2F  B0 43                 1	            mov al,BOARDSCOLOR ;Pixel color 
 0E31  B4 0C                 1	            mov ah,0ch ;Draw Pixel Command 
 0E33                        1	            ??0090: 
 0E33  CD 10                 1	                int 10h 
 0E35  83 C2 01              1	                add DX,1 
 0E38  FE CB                 1	                dec bl 
 0E3A  75 F7                 1	            jnz ??0090 
 0E3C  41                    1	            inc cx 
 0E3D  81 F9 0280            1	            cmp cx,BOARDER1EX 
 0E41  75 E7                 1	        jnz ??0091 
Microsoft (R) Macro Assembler Version 5.10                  12/22/19 22:44:1
                                                             Page     1-67


					drow_thick_line BOARDER1FX,BOARDER1EX ,
				BOARDER1FY+32,BOARDERTHICK,BOARDSCOLOR  ; "dROW
				_THICK_line" IS MACRO TO DRAW down BOARD
 0E43  B9 0000               1	        mov cx,BOARDER1FX 
 0E46                        1	        ??0093: 
 0E46  BA 00B1               1	            mov DX, BOARDER1FY+32 
 0E49  B3 02                 1	            mov Bl,BOARDERTHICK 
 0E4B  B0 43                 1	            mov al,BOARDSCOLOR ;Pixel color 
 0E4D  B4 0C                 1	            mov ah,0ch ;Draw Pixel Command 
 0E4F                        1	            ??0092: 
 0E4F  CD 10                 1	                int 10h 
 0E51  83 C2 01              1	                add DX,1 
 0E54  FE CB                 1	                dec bl 
 0E56  75 F7                 1	            jnz ??0092 
 0E58  41                    1	            inc cx 
 0E59  81 F9 0280            1	            cmp cx,BOARDER1EX 
 0E5D  75 E7                 1	        jnz ??0093 
					
					
					   ; Printing Strings
				        MOVE_CURSOR  PLAYER1_SC_pX,PLAYER_SC_pY
				,0
 0E5F  B2 01                 1		    mov dl, PLAYER1_SC_pX ; Column 
 0E61  B6 13                 1			mov dh, PLAYER_SC_pY ; Row 
 0E63  BB 0000               1			mov bx, 0 ; Page number 0 for g
				raphics modes 
 0E66  B4 02                 1			mov ah, 2h 
 0E68  CD 10                 1			int 10h 
				        PRINTMESSAGE playership1
 0E6A  B4 09                 1	                mov ah,9h 
 0E6C  BA 000A R             1	                mov dx,offset playership1 
 0E6F  CD 21                 1	                int 21h 
				        MOVE_CURSOR  PLAYER2_SC_pX,PLAYER_SC_pY
				,0
 0E71  B2 14                 1		    mov dl, PLAYER2_SC_pX ; Column 
 0E73  B6 13                 1			mov dh, PLAYER_SC_pY ; Row 
 0E75  BB 0000               1			mov bx, 0 ; Page number 0 for g
				raphics modes 
 0E78  B4 02                 1			mov ah, 2h 
 0E7A  CD 10                 1			int 10h 
				        PRINTMESSAGE playership2
 0E7C  B4 09                 1	                mov ah,9h 
 0E7E  BA 001A R             1	                mov dx,offset playership2 
 0E81  CD 21                 1	                int 21h 
				        ; Draw Chat Area
				        MOVE_CURSOR  PLAYER1_SC_pX,PLAYER1_msg_
				py,0
 0E83  B2 01                 1		    mov dl, PLAYER1_SC_pX ; Column 
 0E85  B6 15                 1			mov dh, PLAYER1_msg_py ; Row 
 0E87  BB 0000               1			mov bx, 0 ; Page number 0 for g
				raphics modes 
 0E8A  B4 02                 1			mov ah, 2h 
 0E8C  CD 10                 1			int 10h 
				        PRINTMESSAGE playership1
Microsoft (R) Macro Assembler Version 5.10                  12/22/19 22:44:1
                                                             Page     1-68


 0E8E  B4 09                 1	                mov ah,9h 
 0E90  BA 000A R             1	                mov dx,offset playership1 
 0E93  CD 21                 1	                int 21h 
				        MOVE_CURSOR  PLAYER1_SC_pX,PLAYER2_msg_
				py-1,0
 0E95  B2 01                 1		    mov dl, PLAYER1_SC_pX ; Column 
 0E97  B6 17                 1			mov dh, PLAYER2_msg_py-1 ; Row 
 0E99  BB 0000               1			mov bx, 0 ; Page number 0 for g
				raphics modes 
 0E9C  B4 02                 1			mov ah, 2h 
 0E9E  CD 10                 1			int 10h 
				        PRINTMESSAGE playership2
 0EA0  B4 09                 1	                mov ah,9h 
 0EA2  BA 001A R             1	                mov dx,offset playership2 
 0EA5  CD 21                 1	                int 21h 
				        MOVE_CURSOR  PLAYER1_SC_pX,PLAYER2_msg_
				py,0
 0EA7  B2 01                 1		    mov dl, PLAYER1_SC_pX ; Column 
 0EA9  B6 18                 1			mov dh, PLAYER2_msg_py ; Row 
 0EAB  BB 0000               1			mov bx, 0 ; Page number 0 for g
				raphics modes 
 0EAE  B4 02                 1			mov ah, 2h 
 0EB0  CD 10                 1			int 10h 
				        ; Draw End game statment
				        PRINTMESSAGE st0
 0EB2  B4 09                 1	                mov ah,9h 
 0EB4  BA 0054 R             1	                mov dx,offset st0 
 0EB7  CD 21                 1	                int 21h 
 0EB9  C3			        RET
 0EBA				DRWINFO ENDP
				;******************************************
				;****DRAW heath 
				;*****************************************
 0EBA				drawhelthsh1 proc
 0EBA  51				push cx
 0EBB  56				push si
 0EBC  57				push di
 0EBD  B9 0000				mov cx,0
 0EC0  BE 0216 R			mov si,offset helthsh1fx
 0EC3  BF 022A R			mov di,offset helthsh1ex
					
 0EC6					labh2:
 0EC6  51				push cx
					drow_thick_line [si],[di] ,helthfy,helt
				hlen,BGCOLOR
 0EC7  8B 0C                 1	        mov cx,[si] 
 0EC9                        1	        ??0095: 
 0EC9  BA 0097               1	            mov DX, helthfy 
 0ECC  B3 08                 1	            mov Bl,helthlen 
 0ECE  B0 00                 1	            mov al,BGCOLOR ;Pixel color 
 0ED0  B4 0C                 1	            mov ah,0ch ;Draw Pixel Command 
 0ED2                        1	            ??0094: 
 0ED2  CD 10                 1	                int 10h 
 0ED4  83 C2 01              1	                add DX,1 
Microsoft (R) Macro Assembler Version 5.10                  12/22/19 22:44:1
                                                             Page     1-69


 0ED7  FE CB                 1	                dec bl 
 0ED9  75 F7                 1	            jnz ??0094 
 0EDB  41                    1	            inc cx 
 0EDC  3B 0D                 1	            cmp cx,[di] 
 0EDE  75 E9                 1	        jnz ??0095 
 0EE0  83 C7 02				add di,2
 0EE3  83 C6 02				add si,2
 0EE6  59				pop cx
 0EE7  41				inc cx
 0EE8  83 F9 0A				cmp cx,10
 0EEB  75 D9				jnz labh2
 0EED  B9 0000				mov cx,0
 0EF0  BE 0216 R			mov si,offset helthsh1fx
 0EF3  BF 022A R			mov di,offset helthsh1ex
 0EF6					labh1:
 0EF6  51				push cx
					drow_thick_line [si],[di] ,helthfy,helt
				hlen,helthcolor
 0EF7  8B 0C                 1	        mov cx,[si] 
 0EF9                        1	        ??0097: 
 0EF9  BA 0097               1	            mov DX, helthfy 
 0EFC  B3 08                 1	            mov Bl,helthlen 
 0EFE  B0 04                 1	            mov al,helthcolor ;Pixel color 
 0F00  B4 0C                 1	            mov ah,0ch ;Draw Pixel Command 
 0F02                        1	            ??0096: 
 0F02  CD 10                 1	                int 10h 
 0F04  83 C2 01              1	                add DX,1 
 0F07  FE CB                 1	                dec bl 
 0F09  75 F7                 1	            jnz ??0096 
 0F0B  41                    1	            inc cx 
 0F0C  3B 0D                 1	            cmp cx,[di] 
 0F0E  75 E9                 1	        jnz ??0097 
 0F10  83 C7 02				add di,2
 0F13  83 C6 02				add si,2
 0F16  59				pop cx
 0F17  41				inc cx
 0F18  3B 0E 026A R			cmp cx,sh1health
 0F1C  75 D8				jnz labh1
					
 0F1E  5F				pop di
 0F1F  5E				pop si 
 0F20  59				pop cx
 0F21  C3				ret
 0F22				drawhelthsh1 endp
				;**********************************************
				**
 0F22				drawhelthsh2 proc
 0F22  51				push cx
 0F23  56				push si
 0F24  57				push di
 0F25  B9 0000				mov cx,0
 0F28  BE 023E R			mov si,offset helthsh2fx
 0F2B  BF 0252 R			mov di,offset helthsh2ex
					
Microsoft (R) Macro Assembler Version 5.10                  12/22/19 22:44:1
                                                             Page     1-70


 0F2E					labh3:
 0F2E  51				push cx
					drow_thick_line [si],[di] ,helthfy,helt
				hlen,BGCOLOR
 0F2F  8B 0C                 1	        mov cx,[si] 
 0F31                        1	        ??0099: 
 0F31  BA 0097               1	            mov DX, helthfy 
 0F34  B3 08                 1	            mov Bl,helthlen 
 0F36  B0 00                 1	            mov al,BGCOLOR ;Pixel color 
 0F38  B4 0C                 1	            mov ah,0ch ;Draw Pixel Command 
 0F3A                        1	            ??0098: 
 0F3A  CD 10                 1	                int 10h 
 0F3C  83 C2 01              1	                add DX,1 
 0F3F  FE CB                 1	                dec bl 
 0F41  75 F7                 1	            jnz ??0098 
 0F43  41                    1	            inc cx 
 0F44  3B 0D                 1	            cmp cx,[di] 
 0F46  75 E9                 1	        jnz ??0099 
 0F48  83 C7 02				add di,2
 0F4B  83 C6 02				add si,2
 0F4E  59				pop cx
 0F4F  41				inc cx
 0F50  83 F9 0A				cmp cx,10
 0F53  75 D9				jnz labh3
 0F55  B9 0000				mov cx,0
 0F58  BE 023E R			mov si,offset helthsh2fx
 0F5B  BF 0252 R			mov di,offset helthsh2ex
 0F5E					labh4:
 0F5E  51				push cx
					drow_thick_line [si],[di] ,helthfy,helt
				hlen,helthcolor
 0F5F  8B 0C                 1	        mov cx,[si] 
 0F61                        1	        ??009B: 
 0F61  BA 0097               1	            mov DX, helthfy 
 0F64  B3 08                 1	            mov Bl,helthlen 
 0F66  B0 04                 1	            mov al,helthcolor ;Pixel color 
 0F68  B4 0C                 1	            mov ah,0ch ;Draw Pixel Command 
 0F6A                        1	            ??009A: 
 0F6A  CD 10                 1	                int 10h 
 0F6C  83 C2 01              1	                add DX,1 
 0F6F  FE CB                 1	                dec bl 
 0F71  75 F7                 1	            jnz ??009A 
 0F73  41                    1	            inc cx 
 0F74  3B 0D                 1	            cmp cx,[di] 
 0F76  75 E9                 1	        jnz ??009B 
 0F78  83 C7 02				add di,2
 0F7B  83 C6 02				add si,2
 0F7E  59				pop cx
 0F7F  41				inc cx
 0F80  3B 0E 0276 R			cmp cx,sh2health
 0F84  75 D8				jnz labh4
					
 0F86  5F				pop di
 0F87  5E				pop si 
Microsoft (R) Macro Assembler Version 5.10                  12/22/19 22:44:1
                                                             Page     1-71


 0F88  59				pop cx
 0F89  C3				ret
 0F8A				drawhelthsh2 endp
				
				;**********************************************
				*********
				;**********************************************
				*********
				;               Game Helper functions
				;**********************************************
				*********
				;**********************************************
				*********
				
				;**********************************************
				***
				; **** DRWWINNER - Function draws winner screen
				 for 5 seconds ****
				; * USES :  AX, BX, CX, DX
				; * PARAMS :  NONE
				; *********************************************
				***
 0F8A				DRWWINNER PROC
 0F8A  50			        PUSH AX
				        PREP_BACKBROUND 00h
 0F8B  B4 06                 1					MOV AH, 06h    
				; Scroll up function 
 0F8D  32 C0                 1					XOR AL, AL     
				; Clear entire screen 
 0F8F  33 C9                 1					XOR CX, CX     
				; Upper left corner CH=row, CL=column 
 0F91  BA 184F               1					MOV DX, 184FH  
				; lower right corner DH=row, DL=column 
 0F94  B7 00                 1					MOV BH, 00h    
				; color 
 0F96  CD 10                 1					INT 10H 
				        MOVE_CURSOR  07,07,0
 0F98  B2 07                 1		    mov dl, 07 ; Column 
 0F9A  B6 07                 1			mov dh, 07 ; Row 
 0F9C  BB 0000               1			mov bx, 0 ; Page number 0 for g
				raphics modes 
 0F9F  B4 02                 1			mov ah, 2h 
 0FA1  CD 10                 1			int 10h 
				        PRINTMESSAGE window_winner
 0FA3  B4 09                 1	                mov ah,9h 
 0FA5  BA 01E3 R             1	                mov dx,offset window_winner 
 0FA8  CD 21                 1	                int 21h 
				        MOVE_CURSOR  0fh,09,0
 0FAA  B2 0F                 1		    mov dl, 0fh ; Column 
 0FAC  B6 09                 1			mov dh, 09 ; Row 
 0FAE  BB 0000               1			mov bx, 0 ; Page number 0 for g
				raphics modes 
 0FB1  B4 02                 1			mov ah, 2h 
 0FB3  CD 10                 1			int 10h 
Microsoft (R) Macro Assembler Version 5.10                  12/22/19 22:44:1
                                                             Page     1-72


 0FB5  A1 0276 R		        mov ax,sh2health
 0FB8  39 06 026A R		        CMP sh1health,ax
 0FBC  0F 87 0FC8 R		        ja labt1
 0FC0  0F 84 0FD2 R		        je labt2
 0FC4  0F 82 0FDC R		        jb labt3
 0FC8				        labt1:
				                PRINTMESSAGE playership1
 0FC8  B4 09                 1	                mov ah,9h 
 0FCA  BA 000A R             1	                mov dx,offset playership1 
 0FCD  CD 21                 1	                int 21h 
 0FCF  EB 15 90			                jmp endtlab
 0FD2				        labt2:
				                PRINTMESSAGE equal_window
 0FD2  B4 09                 1	                mov ah,9h 
 0FD4  BA 0200 R             1	                mov dx,offset equal_window 
 0FD7  CD 21                 1	                int 21h 
 0FD9  EB 0B 90			                jmp endtlab
 0FDC				        labt3:
				                PRINTMESSAGE playership2
 0FDC  B4 09                 1	                mov ah,9h 
 0FDE  BA 001A R             1	                mov dx,offset playership2 
 0FE1  CD 21                 1	                int 21h 
 0FE3  EB 01 90			                jmp endtlab
 0FE6				        endtlab:
				                DELAY
 0FE6  B7 05                 1	       mov bh,05h ; sec num 
 0FE8  B4 2C                 1			mov ah,2ch 
 0FEA  CD 21                 1			int 21h 
 0FEC  88 35                 1			mov [di],dh 
 0FEE                        1			??009C: 
 0FEE  CD 21                 1				int 21h 
 0FF0  2A 35                 1				sub dh,[di] 
 0FF2  3A F7                 1				cmp dh,bh 
 0FF4  72 F8                 1			jb ??009C 
 0FF6  58			        POP AX
 0FF7  C3			        RET
 0FF8				DRWWINNER ENDP
				
				;**********************************************
				***
				; **** GAMECHAT - Function for in-game chatting
				 ****
				; * USES :  AX, BX, CX, DX
				; * PARAMS : NONE
				; *********************************************
				***
 0FF8				GAMECHAT PROC
 0FF8  C3			        RET
 0FF9				GAMECHAT ENDP
				
				;**********************************************
				*********
				;**********************************************
				*********
Microsoft (R) Macro Assembler Version 5.10                  12/22/19 22:44:1
                                                             Page     1-73


				;               Ship drawing functions
				;**********************************************
				*********
				;       can be moved into a separate module
				;**********************************************
				*********
				;**********************************************
				*********
				
				;**********************************************
				***
				; **** DRWSHIPL - Draws both ship ****
				; * USES :  ALL
				; * PARAMS :  Param1 => Reg, Param2 => Reg, ...
				; *********************************************
				***
 0FF9				DRWSHIPS PROC
				        drow_thick_line  sh1p1fx,sh1p1ENDx,sh1p
				1fy,ShipSizep1y,ship1color  ; "dROW_THICK_line"
				 IS MACRO TO DRAW SHIP 1 PART 1
 0FF9  B9 0005               1	        mov cx,sh1p1fx 
 0FFC                        1	        ??009E: 
 0FFC  8B 16 026C R          1	            mov DX, sh1p1fy 
 1000  B3 1E                 1	            mov Bl,ShipSizep1y 
 1002  A0 0214 R             1	            mov al,ship1color ;Pixel color 
 1005  B4 0C                 1	            mov ah,0ch ;Draw Pixel Command 
 1007                        1	            ??009D: 
 1007  CD 10                 1	                int 10h 
 1009  83 C2 01              1	                add DX,1 
 100C  FE CB                 1	                dec bl 
 100E  75 F7                 1	            jnz ??009D 
 1010  41                    1	            inc cx 
 1011  83 F9 0F              1	            cmp cx,sh1p1ENDx 
 1014  75 E6                 1	        jnz ??009E 
				        drow_thick_line  sh1p2fx,sh1p2ENDx,sh1p
				2fy,ShipSizep2y,ship1color  ; "dROW_THICK_line"
				 IS MACRO TO DRAW SHIP 1 PART 2
 1016  B9 0010               1	        mov cx,sh1p2fx 
 1019                        1	        ??00A0: 
 1019  8B 16 026E R          1	            mov DX, sh1p2fy 
 101D  B3 08                 1	            mov Bl,ShipSizep2y 
 101F  A0 0214 R             1	            mov al,ship1color ;Pixel color 
 1022  B4 0C                 1	            mov ah,0ch ;Draw Pixel Command 
 1024                        1	            ??009F: 
 1024  CD 10                 1	                int 10h 
 1026  83 C2 01              1	                add DX,1 
 1029  FE CB                 1	                dec bl 
 102B  75 F7                 1	            jnz ??009F 
 102D  41                    1	            inc cx 
 102E  83 F9 15              1	            cmp cx,sh1p2ENDx 
 1031  75 E6                 1	        jnz ??00A0 
				        drow_thick_line  sh2p1fx,sh2p1ENDx,sh2p
				1fy,ShipSizep1y,ship2color  ; "dROW_THICK_line"
				 IS MACRO TO DRAW SHIP 2 PART 1
Microsoft (R) Macro Assembler Version 5.10                  12/22/19 22:44:1
                                                             Page     1-74


 1033  B9 012C               1	        mov cx,sh2p1fx 
 1036                        1	        ??00A2: 
 1036  8B 16 0278 R          1	            mov DX, sh2p1fy 
 103A  B3 1E                 1	            mov Bl,ShipSizep1y 
 103C  A0 0215 R             1	            mov al,ship2color ;Pixel color 
 103F  B4 0C                 1	            mov ah,0ch ;Draw Pixel Command 
 1041                        1	            ??00A1: 
 1041  CD 10                 1	                int 10h 
 1043  83 C2 01              1	                add DX,1 
 1046  FE CB                 1	                dec bl 
 1048  75 F7                 1	            jnz ??00A1 
 104A  41                    1	            inc cx 
 104B  81 F9 0136            1	            cmp cx,sh2p1ENDx 
 104F  75 E5                 1	        jnz ??00A2 
				        drow_thick_line  sh2p2fx,sh2p2ENDx,sh2p
				2fy,ShipSizep2y,ship2color  ; "dROW_THICK_line"
				 IS MACRO TO DRAW SHIP 2 PART 2
 1051  B9 0126               1	        mov cx,sh2p2fx 
 1054                        1	        ??00A4: 
 1054  8B 16 027A R          1	            mov DX, sh2p2fy 
 1058  B3 08                 1	            mov Bl,ShipSizep2y 
 105A  A0 0215 R             1	            mov al,ship2color ;Pixel color 
 105D  B4 0C                 1	            mov ah,0ch ;Draw Pixel Command 
 105F                        1	            ??00A3: 
 105F  CD 10                 1	                int 10h 
 1061  83 C2 01              1	                add DX,1 
 1064  FE CB                 1	                dec bl 
 1066  75 F7                 1	            jnz ??00A3 
 1068  41                    1	            inc cx 
 1069  81 F9 012B            1	            cmp cx,sh2p2ENDx 
 106D  75 E5                 1	        jnz ??00A4 
 106F  C3			        RET
 1070				DRWSHIPS ENDP
				
				;**********************************************
				*********
				;               Reflector drawing functions
				;**********************************************
				*********
				;       can be moved into a separate module
				;**********************************************
				*********
				
				;**********************************************
				***
				; ****  DRWREFL - Draws the reflector ****
				; * USES :  AX, BX, CX, DX
				; * PARAMS :  NONE
				; *********************************************
				***
 1070				DRWREFL PROC
				        drow_thick_line REFfristX,REFendX,REFfr
				istY,REFLECTORlen,REFLECTORCOLOR 
 1070  B9 0097               1	        mov cx,REFfristX 
Microsoft (R) Macro Assembler Version 5.10                  12/22/19 22:44:1
                                                             Page     1-75


 1073                        1	        ??00A6: 
 1073  8B 16 027F R          1	            mov DX, REFfristY 
 1077  B3 3C                 1	            mov Bl,REFLECTORlen 
 1079  B0 56                 1	            mov al,REFLECTORCOLOR ;Pixel color 
 107B  B4 0C                 1	            mov ah,0ch ;Draw Pixel Command 
 107D                        1	            ??00A5: 
 107D  CD 10                 1	                int 10h 
 107F  83 C2 01              1	                add DX,1 
 1082  FE CB                 1	                dec bl 
 1084  75 F7                 1	            jnz ??00A5 
 1086  41                    1	            inc cx 
 1087  81 F9 009C            1	            cmp cx,REFendX 
 108B  75 E6                 1	        jnz ??00A6 
 108D  C3			        RET
 108E				DRWREFL ENDP
				
				; *********************************************
				******************
				;       SOME BULLET FUNCTIONS
				;**********************************************
				******************
				; MVBULLS - Main bullet movement logic 
 108E				MVBULLSPROC PROC FAR
				        ; 1: Use SI to point to the start of th
				e array
 108E  BE 0284 R		        MOV SI, offset bullPoses
 1091				BUL_START_LB:   
				        ; 2: At the beginning of the loop check
				 if SI points to bullet data
				        ; We also check if no data here or reac
				hed the mark of the end and if so we break the 
				loop to outside
 1091  81 3C FFFF		        CMP [SI],0FFFFH
 1095  0F 85 109A R		        JNE  COMPARE_FEFE
 1099  CB			        RET
 109A				COMPARE_FEFE:
 109A  81 3C FEFE		        CMP [SI],0FEFEH
 109E  0F 85 10A3 R		        JNE  GO_BULLS_GO
 10A2  CB			        RET
 10A3				GO_BULLS_GO:
				        ; 3: Put the initial position of X and 
				Y of the current bullet to CX, DX
 10A3  8B 0C			        MOV CX, [SI]
 10A5  8B 54 02			        MOV DX, [SI+2]
				        ; Note that SI is kept at the X positio
				n so as for MVBULL1 to store the new X position
				 in
				        ; To call the right function according 
				to the type of the bullet, we know that the typ
				e of the bullet
				        ; is stored in the MSB of YPos of the b
				ullet, 1 if right and 0 if left, Ok ?
				        ; This means that if the bullet is left
				, YPos will be less than 8000H
Microsoft (R) Macro Assembler Version 5.10                  12/22/19 22:44:1
                                                             Page     1-76


				        ; We can use this piece of information 
				to make condition on the type
				        ; Recall that : CMP dist,src : if dist<
				src, CF is set (=1)
 10A8  81 FA 8000		        CMP DX,8000H
 10AC  0F 83 121F R		        JNC R_MV        ; No carry means YPos >
				 8000H i.e. Right Bullet
				
				        ;**************************************
				*************************************
				        ; LEFT BULLET CHECKS GOES HERE
				        ;**************************************
				*************************************
				        ; 1. End of screen
 10B0  8B C1			        MOV AX,CX
 10B2  05 0014			        ADD AX,buW
 10B5  3D 0140			        CMP AX, 320D
 10B8  0F 84 1218 R		        JE DEL_BUL_LEFT
				        ; 2. Ship
				        ; TODO: -for me- Add comments
 10BC  8B C1			        MOV AX,CX
 10BE  05 0014			        ADD AX,buW
 10C1  40			        INC AX
 10C2  3D 0126			        CMP AX,sh2p2fx
 10C5  0F 85 10ED R		        JNE BULL_CHECK_REFL
 10C9  A1 0278 R		        MOV AX,sh2p1fy
 10CC  05 001E			        ADD AX,ShipSizep1y
 10CF  2B C2			        SUB AX,DX
 10D1  3D 0021			        CMP AX,ShipSizep1y+3
 10D4  0F 83 10ED R		        JNC BULL_CHECK_REFL
 10D8  C6 06 0271 R 01				mov fl,01h
 10DD  E8 14D3 R		        CALL DECP2HEALTH
 10E0  80 3E 027E R 01		        CMP IsThereAWinner,1
 10E5  0F 85 10EA R		        JNZ NO_WINNER_1
 10E9  CB			        RET
 10EA				NO_WINNER_1:        
 10EA  E9 1218 R		        JMP DEL_BUL_LEFT
						
 10ED				BULL_CHECK_REFL:
 10ED  80 3E 0008 R 01				CMP GAME_LEVEL,1
 10F2  0F 85 1115 R				JNZ BULL_CHECK_OTHERS  ; TO CHE
				CK LEVEL ONE 
				        ; 3.CONSTANT  Reflector
				        ; TODO: -for me- Add comments
 10F6  8B C1			        MOV AX,CX
 10F8  05 0014			        ADD AX,buW
 10FB  40			        INC AX
 10FC  3D 0097			        CMP AX,REFfristX
 10FF  0F 85 1115 R		        JNZ BULL_CHECK_OTHERS
 1103  A1 027F R		        MOV AX,REFfristY
 1106  05 003C			        ADD AX,REFLECTORlen
 1109  2B C2			        SUB AX,DX
 110B  3D 003F			        CMP AX,REFLECTORlen+3
 110E  0F 83 1115 R		        JNC BULL_CHECK_OTHERS
Microsoft (R) Macro Assembler Version 5.10                  12/22/19 22:44:1
                                                             Page     1-77


 1112  E9 1388 R		        JMP INV_BULL
				
 1115				BULL_CHECK_OTHERS:
						;******************************
				*************************
						;ROCKET CHECKS
						;******************************
				*************************
 1115						BULL_CHECK_Rocket:
 1115  80 3E 0369 R 00				CMP ROCKET_ON,0
 111A  0F 84 1160 R				JZ CHECK_POWER_UP
						; CMP ROCKET_XFLAG,0
						; JZ BULL_CHECK_HELTHROCKRIGHT
 111E				BULL_CHECK_HELTROCKLEFT:	
 111E  8B C1			        MOV AX,CX
 1120  05 0014			        ADD AX,buW
 1123  40			        INC AX
 1124  3D 004B			        CMP AX,ROCKETL_fx
 1127  0F 84 1135 R		        JE FOUND_X_ROCK_LEFT
 112B  3D 00E2			        CMP AX,ROCKETR_fx
 112E  0F 84 113D R		        JE FOUND_X_ROCK_RIGHT
 1132  EB 2C 90			        JMP CHECK_POWER_UP
 1135				FOUND_X_ROCK_LEFT:
 1135  C6 06 0361 R 00		        MOV ROCKET_XFLAG,0
 113A  EB 06 90			        JMP SEARCH_ROCK_Y
 113D				FOUND_X_ROCK_RIGHT:
 113D  C6 06 0361 R 01		        MOV ROCKET_XFLAG,1
 1142				SEARCH_ROCK_Y:
 1142  A1 0362 R		        MOV AX,ROCKET_fy
 1145  05 001C			        ADD AX,ROCKET_LEN
 1148  2B C2			        SUB AX,DX
 114A  3D 001F			        CMP AX,ROCKET_LEN+3
 114D  0F 83 1160 R		        JNC CHECK_POWER_UP
 1151  80 3E 0368 R 0D				CMP ROCKET_COLOR,0DH
 1156  0F 85 115D R				JNZ DELETE_ROCK_ONLYL
 115A  E9 1388 R				JMP INV_BULL
 115D				    DELETE_ROCK_ONLYL:
 115D  E9 1218 R		        JMP DEL_BUL_LEFT
				        ;**************************************
				*****************
				        ;POWER UP CHECKS
				        ;**************************************
				*****************
 1160				CHECK_POWER_UP:
 1160  80 3E 035E R 00		        CMP POWERUP_ON,0
 1165  0F 84 1212 R		        JZ  MOVE_BULLET_LEFT
 1169  80 3E 035F R 01		        CMP POWERUP_L_IS_DRAWN,1
 116E  0F 85 1187 R		        JNZ BULL_CHECK_POWERUPRIGHT
 1172  8B C1				MOV AX,CX
 1174  05 0014			        ADD AX,buW
 1177  40			        INC AX
 1178  3D 005F			        CMP AX,POWERUPL_fx
 117B  0F 85 1187 R		        JNE  BULL_CHECK_POWERUPRIGHT
 117F  C6 06 0356 R 00		        MOV POWERUP_XFLAG,0
Microsoft (R) Macro Assembler Version 5.10                  12/22/19 22:44:1
                                                             Page     1-78


 1184  EB 1C 90			        JMP SEARCH_POWERUP_Y
 1187				BULL_CHECK_POWERUPRIGHT:
 1187  80 3E 0360 R 01		        CMP POWERUP_R_IS_DRAWN,1
 118C  0F 85 1212 R		        JNZ MOVE_BULLET_LEFT
 1190  8B C1			        MOV AX,CX
 1192  05 0014			        ADD AX,buW
 1195  40			        INC AX
 1196  3D 00CE			        CMP AX,POWERUPR_fx
 1199  0F 85 1212 R		        JNE MOVE_BULLET_LEFT
 119D  C6 06 0356 R 01		        MOV POWERUP_XFLAG,1
 11A2				SEARCH_POWERUP_Y:        
 11A2  A1 0357 R		        MOV AX,POWERUP_fy
 11A5  05 0008			        ADD AX,POWERUP_LEN
 11A8  2B C2			        SUB AX,DX
 11AA  3D 000B			        CMP AX,POWERUP_LEN+3
 11AD  0F 83 1212 R		        JNC MOVE_BULLET_LEFT
 11B1  E8 159C R		        CALL POWER_UP_CHECK_TYPE_SH1
				        DELETE_POWERUP_ONLY
 11B4  50                    2	    PUSH AX 
 11B5  53                    2	    PUSH BX 
 11B6  51                    2	    PUSH CX 
 11B7  52                    2	    PUSH DX 
 11B8  56                    1		PUSH SI 
 11B9  57                    1		PUSH DI 
 11BA  80 3E 0356 R 00       1		CMP POWERUP_XFLAG,0 
 11BF  0F 85 11E7 R          1		JNZ ??00A7 
 11C3  B9 005F               2	        mov cx,POWERUPL_fx 
 11C6                        2	        ??00AA: 
 11C6  8B 16 0357 R          2	            mov DX, POWERUP_fy 
 11CA  B3 08                 2	            mov Bl,POWERUP_LEN 
 11CC  B0 00                 2	            mov al,00H ;Pixel color 
 11CE  B4 0C                 2	            mov ah,0ch ;Draw Pixel Command 
 11D0                        2	            ??00A9: 
 11D0  CD 10                 2	                int 10h 
 11D2  83 C2 01              2	                add DX,1 
 11D5  FE CB                 2	                dec bl 
 11D7  75 F7                 2	            jnz ??00A9 
 11D9  41                    2	            inc cx 
 11DA  83 F9 65              2	            cmp cx,POWERUPL_ex 
 11DD  75 E7                 2	        jnz ??00AA 
 11DF  C6 06 035F R 00       1		MOV POWERUP_L_IS_DRAWN,0 
 11E4  EB 23 90              1		JMP ??00A8 
 11E7                        1	??00A7: 
 11E7  B9 00CE               2	        mov cx,POWERUPR_fx 
 11EA                        2	        ??00AC: 
 11EA  8B 16 0357 R          2	            mov DX, POWERUP_fy 
 11EE  B3 08                 2	            mov Bl,POWERUP_LEN 
 11F0  B0 00                 2	            mov al,00H ;Pixel color 
 11F2  B4 0C                 2	            mov ah,0ch ;Draw Pixel Command 
 11F4                        2	            ??00AB: 
 11F4  CD 10                 2	                int 10h 
 11F6  83 C2 01              2	                add DX,1 
 11F9  FE CB                 2	                dec bl 
 11FB  75 F7                 2	            jnz ??00AB 
Microsoft (R) Macro Assembler Version 5.10                  12/22/19 22:44:1
                                                             Page     1-79


 11FD  41                    2	            inc cx 
 11FE  81 F9 00D3            2	            cmp cx,POWERUPR_ex 
 1202  75 E6                 2	        jnz ??00AC 
 1204  C6 06 0360 R 00       1		MOV POWERUP_R_IS_DRAWN,0 
 1209                        1	??00A8: 
 1209  5F                    1		POP DI 
 120A  5E                    1		POP SI 
 120B  5A                    2	    POP DX 
 120C  59                    2	    POP CX 
 120D  5B                    2	    POP BX 
 120E  58                    2	    POP AX 
 120F  EB 07 90			        JMP DEL_BUL_LEFT
				       
				
				        ; Call MVBULL, it moves the left bullet
				 and stores the new position in [SI]
 1212				MOVE_BULLET_LEFT:
 1212  E8 1399 R		        CALL MVBULL
 1215  E9 1382 R		        JMP  END_BUL_LP
				        
				        ; Branch for left bullet deletion
 1218				DEL_BUL_LEFT:
 1218  FE 0E 0270 R		        DEC p1_bulls
 121C  E9 1379 R		        JMP DEL_BUL
				
 121F				R_MV:   
				        ; Don't forget that we store the type o
				f the bullet in the MSB of YPos 
				        ; but we don't want this to affect our 
				drawing
				        ; so we must make sure it's 0 before dr
				awing or deleting
 121F  81 E2 7FFF		        AND DX, 7FFFH   
				        
				        ;**************************************
				*************************************
				        ; RIGHT BULLET CHECKS GOES HERE
				        ;**************************************
				*************************************
				        ; 1. End of screen
 1223  83 F9 00			        CMP CX, 00D
 1226  0F 84 1375 R		        JE  DEL_BUL_RIGHT
				        ; 2. Ship
				        ; TODO: -for me- Add comments
 122A  8B C1			        MOV AX,CX
 122C  48			        DEC AX
 122D  3D 0015			        CMP AX,sh1p2ENDx
 1230  0F 85 1258 R		        JNZ BULR_CHECK_REFL
 1234  A1 026C R		        MOV AX,sh1p1fy
 1237  05 001E			        ADD AX,ShipSizep1y
 123A  2B C2			        SUB AX,DX
 123C  3D 0021			        CMP AX,ShipSizep1y+3
 123F  0F 83 1258 R		        JNC BULR_CHECK_REFL
 1243  C6 06 027D R 01			mov fr,01h
Microsoft (R) Macro Assembler Version 5.10                  12/22/19 22:44:1
                                                             Page     1-80


 1248  E8 1444 R		        CALL DECP1HEALTH
 124B  80 3E 027E R 01		        CMP IsThereAWinner,1
 1250  0F 85 1255 R		        JNZ  NO_WINNER_2
 1254  CB			        RET
 1255				NO_WINNER_2:
 1255  E9 1375 R		        JMP DEL_BUL_RIGHT
				
 1258				BULR_CHECK_REFL:        
 1258  80 3E 0008 R 01				CMP GAME_LEVEL,1
 125D  0F 85 127B R				JNZ BULR_CHECK_OTHERS   ; BECOU
				SE LEVEL ONE ONLY HAS CONSTANT REFLECTOR
				        ; 3. CONSTANT Reflector
				        ; TODO: -for me- Add comments
 1261  81 F9 009C		        CMP CX,REFendX
 1265  0F 85 127B R		        JNE BULR_CHECK_OTHERS
 1269  A1 027F R		        MOV AX,REFfristY
 126C  05 003C			        ADD AX,REFLECTORlen
 126F  2B C2			        SUB AX,DX
 1271  3D 003F			        CMP AX,REFLECTORlen+3
 1274  0F 83 127B R		        JNC BULR_CHECK_OTHERS
 1278  E9 1390 R		        JMP INV_BULR
				
 127B				BULR_CHECK_OTHERS:
				
						
				        ;**************************************
				*****************
						; CHECK ROCKET
				        ;**************************************
				*****************
 127B				        BULL_CHECK_Rocket1:
 127B  80 3E 0369 R 00		        CMP ROCKET_ON,0
 1280  0F 84 12C3 R		        JZ CHECK_POWER_UP_R
 1284				BULR_CHECK_HELTHROCKLEFT:		
 1284  8B C1			        MOV AX,CX
 1286  48			        DEC AX
 1287  3D 0050			        CMP AX,ROCKETL_Ex
 128A  0F 84 1298 R		        JZ  R_FOUND_X_ROCK_LEFT
 128E  3D 00E7			        CMP AX,ROCKETR_Ex
 1291  0F 84 12A0 R		        JZ  R_FOUND_X_ROCK_RIGHT
 1295  EB 2C 90			        JMP CHECK_POWER_UP_R
 1298				R_FOUND_X_ROCK_LEFT:
 1298  C6 06 0361 R 00		        MOV ROCKET_XFLAG,0
 129D  EB 06 90			        JMP R_SEARCH_ROCK_Y
 12A0				R_FOUND_X_ROCK_RIGHT:
 12A0  C6 06 0361 R 01		        MOV ROCKET_XFLAG,1
 12A5				R_SEARCH_ROCK_Y:
 12A5  A1 0362 R		        MOV AX,ROCKET_fy
 12A8  05 001C			        ADD AX,ROCKET_LEN
 12AB  2B C2			        SUB AX,DX
 12AD  3D 001F			        CMP AX,ROCKET_LEN+3
 12B0  0F 83 12C3 R		        JNC CHECK_POWER_UP_R
 12B4  80 3E 0368 R 0D				CMP ROCKET_COLOR,0DH
 12B9  0F 85 12C0 R				JNZ DELETE_ROCK_ONLYr
Microsoft (R) Macro Assembler Version 5.10                  12/22/19 22:44:1
                                                             Page     1-81


 12BD  E9 1390 R				JMP INV_BULR	
 12C0				      DELETE_ROCK_ONLYr:
 12C0  E9 1375 R		        JMP DEL_BUL_RIGHT
				        ;**************************************
				*****************
						; CHECK POWERUP
				        ;**************************************
				*****************
 12C3				CHECK_POWER_UP_R:
 12C3  80 3E 035E R 00		        CMP POWERUP_ON,0
 12C8  0F 84 136F R		        JZ MOVE_BULLET_RIGHT
 12CC  80 3E 035F R 01		        CMP POWERUP_L_IS_DRAWN,1
 12D1  0F 85 12E7 R		        JNZ BULR_CHECK_POWERUPRIGHT
 12D5  8B C1			        MOV AX,CX
 12D7  48			        DEC AX
 12D8  3D 0065			        CMP AX,POWERUPL_Ex
 12DB  0F 85 12E7 R		        JNE BULR_CHECK_POWERUPRIGHT
 12DF  C6 06 0356 R 00		        MOV POWERUP_XFLAG,0
 12E4  EB 19 90			        JMP R_SEARCH_POWERUP_Y
 12E7				BULR_CHECK_POWERUPRIGHT:
 12E7  80 3E 0360 R 01		        CMP POWERUP_R_IS_DRAWN,1
 12EC  0F 85 136F R		        JNZ MOVE_BULLET_RIGHT
 12F0  8B C1				MOV AX,CX
 12F2  48			        DEC AX
 12F3  3D 00D3			        CMP AX,POWERUPR_Ex
 12F6  0F 85 136F R		        JNE MOVE_BULLET_RIGHT
 12FA  C6 06 0356 R 01		        MOV POWERUP_XFLAG,1
 12FF				R_SEARCH_POWERUP_Y:
 12FF  A1 0357 R		        MOV AX,POWERUP_fy
 1302  05 0008			        ADD AX,POWERUP_LEN
 1305  2B C2			        SUB AX,DX
 1307  3D 000B			        CMP AX,POWERUP_LEN+3
 130A  0F 83 136F R		        JNC MOVE_BULLET_RIGHT
 130E  E8 1562 R		        CALL POWER_UP_CHECK_TYPE_SH2
				        DELETE_POWERUP_ONLY
 1311  50                    2	    PUSH AX 
 1312  53                    2	    PUSH BX 
 1313  51                    2	    PUSH CX 
 1314  52                    2	    PUSH DX 
 1315  56                    1		PUSH SI 
 1316  57                    1		PUSH DI 
 1317  80 3E 0356 R 00       1		CMP POWERUP_XFLAG,0 
 131C  0F 85 1344 R          1		JNZ ??00AD 
 1320  B9 005F               2	        mov cx,POWERUPL_fx 
 1323                        2	        ??00B0: 
 1323  8B 16 0357 R          2	            mov DX, POWERUP_fy 
 1327  B3 08                 2	            mov Bl,POWERUP_LEN 
 1329  B0 00                 2	            mov al,00H ;Pixel color 
 132B  B4 0C                 2	            mov ah,0ch ;Draw Pixel Command 
 132D                        2	            ??00AF: 
 132D  CD 10                 2	                int 10h 
 132F  83 C2 01              2	                add DX,1 
 1332  FE CB                 2	                dec bl 
 1334  75 F7                 2	            jnz ??00AF 
Microsoft (R) Macro Assembler Version 5.10                  12/22/19 22:44:1
                                                             Page     1-82


 1336  41                    2	            inc cx 
 1337  83 F9 65              2	            cmp cx,POWERUPL_ex 
 133A  75 E7                 2	        jnz ??00B0 
 133C  C6 06 035F R 00       1		MOV POWERUP_L_IS_DRAWN,0 
 1341  EB 23 90              1		JMP ??00AE 
 1344                        1	??00AD: 
 1344  B9 00CE               2	        mov cx,POWERUPR_fx 
 1347                        2	        ??00B2: 
 1347  8B 16 0357 R          2	            mov DX, POWERUP_fy 
 134B  B3 08                 2	            mov Bl,POWERUP_LEN 
 134D  B0 00                 2	            mov al,00H ;Pixel color 
 134F  B4 0C                 2	            mov ah,0ch ;Draw Pixel Command 
 1351                        2	            ??00B1: 
 1351  CD 10                 2	                int 10h 
 1353  83 C2 01              2	                add DX,1 
 1356  FE CB                 2	                dec bl 
 1358  75 F7                 2	            jnz ??00B1 
 135A  41                    2	            inc cx 
 135B  81 F9 00D3            2	            cmp cx,POWERUPR_ex 
 135F  75 E6                 2	        jnz ??00B2 
 1361  C6 06 0360 R 00       1		MOV POWERUP_R_IS_DRAWN,0 
 1366                        1	??00AE: 
 1366  5F                    1		POP DI 
 1367  5E                    1		POP SI 
 1368  5A                    2	    POP DX 
 1369  59                    2	    POP CX 
 136A  5B                    2	    POP BX 
 136B  58                    2	    POP AX 
 136C  EB 07 90			        JMP DEL_BUL_RIGHT
				
 136F				MOVE_BULLET_RIGHT:
				        ; Call MVBULR, it moves the left bullet
				 and stores the new position in [SI]
 136F  E8 13C8 R		        CALL MVBULR
 1372  EB 0E 90			        JMP END_BUL_LP 
				
				        ; Branch for right bullet deletion
 1375				DEL_BUL_RIGHT:
 1375  FE 0E 027C R		        DEC p2_bulls        
 1379				DEL_BUL:
 1379  E8 13F7 R		        CALL DELBUL
 137C  E8 16A5 R		        CALL changeColor
 137F  EB 04 90			        JMP END_BUL_LP_WITHOUT_INC
				        
				        ;Increment SI by 4 to get a new bullet 
				position
 1382				END_BUL_LP:        
 1382  83 C6 04			        ADD SI,4
 1385				END_BUL_LP_WITHOUT_INC:
 1385  E9 1091 R		        JMP BUL_START_LB
				
				        ; Invert Left Bullet Branch
 1388				INV_BULL:
 1388  E8 1437 R		        CALL INVBUL
Microsoft (R) Macro Assembler Version 5.10                  12/22/19 22:44:1
                                                             Page     1-83


 138B  E8 13C8 R		        CALL MVBULR
 138E  EB F2			        JMP END_BUL_LP
				
				        ; Invert Right Bullet Branch
 1390				INV_BULR:
 1390  E8 1437 R		        CALL INVBUL
 1393  E8 1399 R		        CALL MVBULL
 1396  EB EA			        JMP END_BUL_LP
				
				        ; 7: Sometimes we don't need to increme
				nt SI, e.g. after deleting a bullet due to the 
				way we do deletion by shifting
				
				
 1398  CB			BULL_OUT_LB: RET
 1399				MVBULLSPROC ENDP
				
				;*******************************************
				; **** MOVE  LEFT BULLET FUNCTION *************
				**
				; **** Also saves the new position to memory
				; * USES : CX , DX, DI
				; * PARAMS : X_START => CX, Y_START => DX, 
				;          : X_Store => DI     
				; *****************************************
 1399				MVBULL PROC
				        ; Black the first coloumn of the bullet
				        DRWPX 00H        
 1399  B0 00                 1	    MOV AL,00H 
 139B  B4 0C                 1	    MOV AH,0CH 
 139D  CD 10                 1	    INT 10H 
 139F  42			        INC DX
				        DRWPX 00H
 13A0  B0 00                 1	    MOV AL,00H 
 13A2  B4 0C                 1	    MOV AH,0CH 
 13A4  CD 10                 1	    INT 10H 
 13A6  42			        INC DX
				        DRWPX 00H
 13A7  B0 00                 1	    MOV AL,00H 
 13A9  B4 0C                 1	    MOV AH,0CH 
 13AB  CD 10                 1	    INT 10H 
				        ; Save the new buX in memory
 13AD  41			        INC CX
 13AE  89 0C			        MOV [SI],CX
				        ; Set the position after the end of the
				 bullet
 13B0  83 C1 13			        ADD CX,13H
				        ;  White a new column after the end
				        DRWPX 0FH        
 13B3  B0 0F                 1	    MOV AL,0FH 
 13B5  B4 0C                 1	    MOV AH,0CH 
 13B7  CD 10                 1	    INT 10H 
 13B9  4A			        DEC DX
				        DRWPX 0FH
Microsoft (R) Macro Assembler Version 5.10                  12/22/19 22:44:1
                                                             Page     1-84


 13BA  B0 0F                 1	    MOV AL,0FH 
 13BC  B4 0C                 1	    MOV AH,0CH 
 13BE  CD 10                 1	    INT 10H 
 13C0  4A			        DEC DX
				        DRWPX 0FH
 13C1  B0 0F                 1	    MOV AL,0FH 
 13C3  B4 0C                 1	    MOV AH,0CH 
 13C5  CD 10                 1	    INT 10H 
 13C7  C3			        RET
 13C8				MVBULL ENDP
				
				;*******************************************
				; **** MOVE RIGHT BULLET FUNCTION *************
				**
				; **** Also saves the new position to memory
				; * USES : CX , DX, DI
				; * PARAMS : X_END => CX, Y_END => DX, 
				;          : X_Store => DI     
				; *****************************************
 13C8				MVBULR PROC
				        ; Save the new buX in memory
 13C8  49			        DEC CX
 13C9  89 0C			        MOV [SI],CX
				        ;  White a new coloumn before the start
				        DRWPX 0FH        
 13CB  B0 0F                 1	    MOV AL,0FH 
 13CD  B4 0C                 1	    MOV AH,0CH 
 13CF  CD 10                 1	    INT 10H 
 13D1  42			        INC DX
				        DRWPX 0FH
 13D2  B0 0F                 1	    MOV AL,0FH 
 13D4  B4 0C                 1	    MOV AH,0CH 
 13D6  CD 10                 1	    INT 10H 
 13D8  42			        INC DX
				        DRWPX 0FH
 13D9  B0 0F                 1	    MOV AL,0FH 
 13DB  B4 0C                 1	    MOV AH,0CH 
 13DD  CD 10                 1	    INT 10H 
				        ; Set the position at the end of the bu
				llet
 13DF  83 C1 15			        ADD CX,15H
				        ; Black the last column of the bullet
				        DRWPX 00H        
 13E2  B0 00                 1	    MOV AL,00H 
 13E4  B4 0C                 1	    MOV AH,0CH 
 13E6  CD 10                 1	    INT 10H 
 13E8  4A			        DEC DX
				        DRWPX 00H
 13E9  B0 00                 1	    MOV AL,00H 
 13EB  B4 0C                 1	    MOV AH,0CH 
 13ED  CD 10                 1	    INT 10H 
 13EF  4A			        DEC DX
				        DRWPX 00H
 13F0  B0 00                 1	    MOV AL,00H 
Microsoft (R) Macro Assembler Version 5.10                  12/22/19 22:44:1
                                                             Page     1-85


 13F2  B4 0C                 1	    MOV AH,0CH 
 13F4  CD 10                 1	    INT 10H 
 13F6  C3			        RET
 13F7				MVBULR ENDP
				
				;**********************************************
				***
				; **** DELETE BULLET FUNCTION ****
				; * USES : CX, DX, SI
				; * PARAMS :  CX => Start_X, DX => Start_Y, SI 
				=> Store_X
				; *********************************************
				***
 13F7				DELBUL  PROC
				        ; OK, know we need to apply the best pr
				operty of our array, shifted deletion !
				        ; That is, if some bullet data is to be
				 deleted, we move it at the end of the array an
				d move the last element to its position
				        ; This is valid because our array is a 
				bag and we don't care about the order
				        ; Our data to be deleted is in [SI],[SI
				+2]; and the last element is at [DI-4], [DI-2],
				 so lets move it 
 13F7  FF 75 FC			        PUSH [DI-4]
 13FA  8F 04			        POP  [SI]
 13FC  FF 75 FE			        PUSH [DI-2]
 13FF  8F 44 02			        POP  [SI+2]
				        ; Then we move DI backward in the array
 1402  83 EF 04			        SUB  DI,4
				        ; And we delete the last element data
 1405  C7 05 FFFF		        MOV  [DI], 0FFFFH
 1409  C7 45 02 FFFF		        MOV  [DI+2],0FFFFH
 140E  56			        PUSH SI         ; We will use it for lo
				oping, however, we still need it to complete th
				e bullet loop
 140F  8B F1			        MOV SI,CX
 1411  83 C6 14			        ADD SI,buW
 1414  46			        INC SI        ; Fixing an error in dele
				ting the right bullet
				        ; Don't forget to correct YPos of the b
				ullet to delete the effect of the type bit
 1415  81 E2 7FFF		        AND DX,7FFFH
 1419				UNDRW_L:  
				        DRWPX 00H     ;DRAW PIXEL ON LINE ONE
 1419  B0 00                 1	    MOV AL,00H 
 141B  B4 0C                 1	    MOV AH,0CH 
 141D  CD 10                 1	    INT 10H 
 141F  42			        INC DX              ;GO DOWN A LINE
				        DRWPX 00H     ;DRAW PIXEL ON LINE TWO
 1420  B0 00                 1	    MOV AL,00H 
 1422  B4 0C                 1	    MOV AH,0CH 
 1424  CD 10                 1	    INT 10H 
 1426  42			        INC DX              ;GO DOWN A LINE
Microsoft (R) Macro Assembler Version 5.10                  12/22/19 22:44:1
                                                             Page     1-86


				        DRWPX 00H     ;DRAW PIXEL ON LINE TWO
 1427  B0 00                 1	    MOV AL,00H 
 1429  B4 0C                 1	    MOV AH,0CH 
 142B  CD 10                 1	    INT 10H 
 142D  83 EA 02			        SUB DX,2
 1430  41			        INC CX              
 1431  3B CE			        CMP CX,SI
 1433  75 E4			        JNE UNDRW_L
 1435  5E			        POP SI
 1436  C3			        RET
 1437				DELBUL  ENDP
				
				
				;**********************************************
				***
				; **** INVERT BULLET FUNCTION ****
				; * USES : SI
				; * PARAMS :  SI => Store_X
				; *********************************************
				***
 1437				INVBUL  PROC
 1437  81 74 02 8000		        XOR [SI+2],8000H
 143C  8B 54 02			        MOV DX, [SI+2]
 143F  81 E2 7FFF		        AND DX,7FFFH
 1443  C3			        RET
 1444				INVBUL  ENDP
				
				;**********************************************
				***
				
				
				
				;**********************************************
				***********************************************
				***
				
				; **** DECP1HEALTH - Decreases health of player
				1 and redraws the number + handles winning of P
				2****
				; * USES :  AX, BX, CX, DX
				; * PARAMS :  NONE
				; *********************************************
				***
 1444				DECP1HEALTH PROC
						pusha
 1444  50                    1	    PUSH AX 
 1445  53                    1	    PUSH BX 
 1446  51                    1	    PUSH CX 
 1447  52                    1	    PUSH DX 
 1448  83 3E 026A R 01				CMP sh1health, 1
 144D  0F 8E 1481 R		                JlE PLAYER2_WINS        ; Becau
				se the signed value of the health can be negati
				ve so we need signed comparison
 1451  80 3E 0268 R 00				CMP SH1PROTECT_FLAG,0
Microsoft (R) Macro Assembler Version 5.10                  12/22/19 22:44:1
                                                             Page     1-87


 1456  0F 84 1477 R				JZ LABDC1
 145A  FE 0E 0269 R				DEC SH1TIMES_PROTECT
 145E  80 3E 0269 R 00				CMP SH1TIMES_PROTECT,0
 1463  0F 85 147E R				JNZ EMDD
 1467  C6 06 0268 R 00				MOV SH1PROTECT_FLAG,0
 146C  C6 06 0214 R 33				MOV SHIP1COLOR,33H
 1471  E8 0FF9 R				CALL DRWSHIPS
 1474  EB 08 90					JMP EMDD
 1477						LABDC1:
 1477  FF 0E 026A R				dec sh1health
 147B  E8 0EBA R				call drawhelthsh1
 147E						EMDD:
 147E  EB 4E 90			        JMP OUT_DECH1_LB
						
				        ; TODO: Redraw the number
 1481				PLAYER2_WINS: ; winner 
 1481  C6 06 027E R 01		        MOV IsThereAWinner, 01H
					PREP_BACKBROUND 00h
 1486  B4 06                 1					MOV AH, 06h    
				; Scroll up function 
 1488  32 C0                 1					XOR AL, AL     
				; Clear entire screen 
 148A  33 C9                 1					XOR CX, CX     
				; Upper left corner CH=row, CL=column 
 148C  BA 184F               1					MOV DX, 184FH  
				; lower right corner DH=row, DL=column 
 148F  B7 00                 1					MOV BH, 00h    
				; color 
 1491  CD 10                 1					INT 10H 
				        MOVE_CURSOR  07,07,0
 1493  B2 07                 1		    mov dl, 07 ; Column 
 1495  B6 07                 1			mov dh, 07 ; Row 
 1497  BB 0000               1			mov bx, 0 ; Page number 0 for g
				raphics modes 
 149A  B4 02                 1			mov ah, 2h 
 149C  CD 10                 1			int 10h 
				        PRINTMESSAGE window_winner
 149E  B4 09                 1	                mov ah,9h 
 14A0  BA 01E3 R             1	                mov dx,offset window_winner 
 14A3  CD 21                 1	                int 21h 
				        MOVE_CURSOR  0fh,09,0
 14A5  B2 0F                 1		    mov dl, 0fh ; Column 
 14A7  B6 09                 1			mov dh, 09 ; Row 
 14A9  BB 0000               1			mov bx, 0 ; Page number 0 for g
				raphics modes 
 14AC  B4 02                 1			mov ah, 2h 
 14AE  CD 10                 1			int 10h 
				        PRINTMESSAGE playership2
 14B0  B4 09                 1	                mov ah,9h 
 14B2  BA 001A R             1	                mov dx,offset playership2 
 14B5  CD 21                 1	                int 21h 
				        PRINTMESSAGE st7
 14B7  B4 09                 1	                mov ah,9h 
 14B9  BA 0156 R             1	                mov dx,offset st7 
Microsoft (R) Macro Assembler Version 5.10                  12/22/19 22:44:1
                                                             Page     1-88


 14BC  CD 21                 1	                int 21h 
				        DELAY
 14BE  B7 05                 1	       mov bh,05h ; sec num 
 14C0  B4 2C                 1			mov ah,2ch 
 14C2  CD 21                 1			int 21h 
 14C4  88 35                 1			mov [di],dh 
 14C6                        1			??00B3: 
 14C6  CD 21                 1				int 21h 
 14C8  2A 35                 1				sub dh,[di] 
 14CA  3A F7                 1				cmp dh,bh 
 14CC  72 F8                 1			jb ??00B3 
 14CE				OUT_DECH1_LB:        
				        popa
 14CE  5A                    1	    POP DX 
 14CF  59                    1	    POP CX 
 14D0  5B                    1	    POP BX 
 14D1  58                    1	    POP AX 
 14D2  C3			        RET
 14D3				DECP1HEALTH ENDP
				
				;**********************************************
				***
				; **** DECP2HEALTH - Decreases health of player
				2 and redraws the number + handles winning of P
				1****
				; * USES :  AX, BX, CX, DX
				; * PARAMS :  NONE
				; *********************************************
				***
 14D3				DECP2HEALTH PROC
						pusha
 14D3  50                    1	    PUSH AX 
 14D4  53                    1	    PUSH BX 
 14D5  51                    1	    PUSH CX 
 14D6  52                    1	    PUSH DX 
 14D7  83 3E 0276 R 01				CMP sh2health, 1
 14DC  0F 8E 1510 R		                JLE PLAYER1_WINS        ; Becau
				se the signed value of the health can be negati
				ve so we need signed comparison
 14E0  80 3E 0274 R 00				CMP SH2PROTECT_FLAG,0
 14E5  0F 84 1506 R				JZ LABDC21
 14E9  FE 0E 0275 R				DEC SH2TIMES_PROTECT
 14ED  80 3E 0275 R 00				CMP SH2TIMES_PROTECT,0
 14F2  0F 85 150D R				JNZ EMDD2
 14F6  C6 06 0274 R 00				MOV SH2PROTECT_FLAG,0
 14FB  C6 06 0215 R 33				MOV SHIP2COLOR,33H
 1500  E8 0FF9 R				CALL DRWSHIPS
 1503  EB 08 90					JMP EMDD2
 1506						LABDC21:
 1506  FF 0E 0276 R				dec sh2health
 150A  E8 0F22 R				call drawhelthsh2
 150D						EMDD2:
 150D  EB 4E 90			        JMP OUT_DECH2_LB
 1510				PLAYER1_WINS:
Microsoft (R) Macro Assembler Version 5.10                  12/22/19 22:44:1
                                                             Page     1-89


 1510  C6 06 027E R 01				MOV IsThereAWinner, 01H
						PREP_BACKBROUND 00h
 1515  B4 06                 1					MOV AH, 06h    
				; Scroll up function 
 1517  32 C0                 1					XOR AL, AL     
				; Clear entire screen 
 1519  33 C9                 1					XOR CX, CX     
				; Upper left corner CH=row, CL=column 
 151B  BA 184F               1					MOV DX, 184FH  
				; lower right corner DH=row, DL=column 
 151E  B7 00                 1					MOV BH, 00h    
				; color 
 1520  CD 10                 1					INT 10H 
				        MOVE_CURSOR  07,07,0
 1522  B2 07                 1		    mov dl, 07 ; Column 
 1524  B6 07                 1			mov dh, 07 ; Row 
 1526  BB 0000               1			mov bx, 0 ; Page number 0 for g
				raphics modes 
 1529  B4 02                 1			mov ah, 2h 
 152B  CD 10                 1			int 10h 
				        PRINTMESSAGE window_winner
 152D  B4 09                 1	                mov ah,9h 
 152F  BA 01E3 R             1	                mov dx,offset window_winner 
 1532  CD 21                 1	                int 21h 
				        MOVE_CURSOR  0fh,09,0
 1534  B2 0F                 1		    mov dl, 0fh ; Column 
 1536  B6 09                 1			mov dh, 09 ; Row 
 1538  BB 0000               1			mov bx, 0 ; Page number 0 for g
				raphics modes 
 153B  B4 02                 1			mov ah, 2h 
 153D  CD 10                 1			int 10h 
				        PRINTMESSAGE playership1
 153F  B4 09                 1	                mov ah,9h 
 1541  BA 000A R             1	                mov dx,offset playership1 
 1544  CD 21                 1	                int 21h 
				        PRINTMESSAGE st7
 1546  B4 09                 1	                mov ah,9h 
 1548  BA 0156 R             1	                mov dx,offset st7 
 154B  CD 21                 1	                int 21h 
				        DELAY
 154D  B7 05                 1	       mov bh,05h ; sec num 
 154F  B4 2C                 1			mov ah,2ch 
 1551  CD 21                 1			int 21h 
 1553  88 35                 1			mov [di],dh 
 1555                        1			??00B4: 
 1555  CD 21                 1				int 21h 
 1557  2A 35                 1				sub dh,[di] 
 1559  3A F7                 1				cmp dh,bh 
 155B  72 F8                 1			jb ??00B4 
 155D				OUT_DECH2_LB:      
				        popa
 155D  5A                    1	    POP DX 
 155E  59                    1	    POP CX 
 155F  5B                    1	    POP BX 
Microsoft (R) Macro Assembler Version 5.10                  12/22/19 22:44:1
                                                             Page     1-90


 1560  58                    1	    POP AX 
 1561  C3			        RET
 1562				DECP2HEALTH ENDP
				
				
 1562				POWER_UP_CHECK_TYPE_SH2 Proc
 1562  80 3E 035D R 04				CMP POWERUP_COLOR,HELTH_UP
 1567  0F 85 1571 R				JNZ CMPARE_SPEAD_UP
 156B  E8 166B R				CALL INCSH2HEALTH
 156E  EB 2B 90					JMP ENDPROC
 1571						CMPARE_SPEAD_UP:
 1571  80 3E 035D R 02				CMP POWERUP_COLOR,SPEAD_UP
 1576  0F 85 1580 R				JNZ CMPARE_SPEAD_DOWN
 157A  E8 1625 R				CALL Speed_UP_Sh2_Health
 157D  EB 1C 90					JMP ENDPROC
 1580						CMPARE_SPEAD_DOWN:
 1580  80 3E 035D R 01				CMP POWERUP_COLOR,SPEAD_DOWN
 1585  0F 85 158F R				JNZ CMPARE_PROTECT
 1589  E8 1651 R				CALL DELAY_SPEED2
 158C  EB 0D 90					JMP ENDPROC
 158F						CMPARE_PROTECT:
 158F  80 3E 035D R 03				CMP POWERUP_COLOR,PROTECT
 1594  0F 85 159B R				JNZ ENDPROC
 1598  E8 15F5 R				CALL INC_PROTECTBULLETRIGHT
 159B						ENDPROC:
 159B  C3						RET
 159C				POWER_UP_CHECK_TYPE_SH2 ENDP
				
 159C				POWER_UP_CHECK_TYPE_SH1 Proc
 159C  80 3E 035D R 04				CMP POWERUP_COLOR,HELTH_UP
 15A1  0F 85 15AB R				JNZ CMPARE_SPEAD_UP1
 15A5  E8 1688 R				CALL INCSH1HEALTH
 15A8  EB 2B 90					JMP ENDPROC1
 15AB						CMPARE_SPEAD_UP1:
 15AB  80 3E 035D R 02				CMP POWERUP_COLOR,SPEAD_UP
 15B0  0F 85 15BA R				JNZ CMPARE_SPEAD_DOWN1
 15B4  E8 1614 R				CALL Speed_UP_Sh1_Health
 15B7  EB 1C 90					JMP ENDPROC1
 15BA						CMPARE_SPEAD_DOWN1:
 15BA  80 3E 035D R 01				CMP POWERUP_COLOR,SPEAD_DOWN
 15BF  0F 85 15C9 R				JNZ CMPARE_PROTECT1
 15C3  E8 1637 R				CALL DELAY_SPEED1
 15C6  EB 0D 90					JMP ENDPROC1
 15C9						CMPARE_PROTECT1:
 15C9  80 3E 035D R 03				CMP POWERUP_COLOR,PROTECT
 15CE  0F 85 15D5 R				JNZ ENDPROC1
 15D2  E8 15D6 R				CALL INC_PROTECTBULLETLEFT
 15D5						ENDPROC1:
 15D5  C3						RET
 15D6				POWER_UP_CHECK_TYPE_SH1 ENDP
				
 15D6				INC_PROTECTBULLETLEFT Proc
					    PUSHA
 15D6  50                    1	    PUSH AX 
Microsoft (R) Macro Assembler Version 5.10                  12/22/19 22:44:1
                                                             Page     1-91


 15D7  53                    1	    PUSH BX 
 15D8  51                    1	    PUSH CX 
 15D9  52                    1	    PUSH DX 
 15DA  57					PUSH DI
 15DB  56					PUSH SI
 15DC  C6 06 0268 R 01				MOV SH1PROTECT_FLAG,1
 15E1  C6 06 0214 R 03				MOV SHIP1COLOR,PROTECT
 15E6  E8 0FF9 R				CALL DRWSHIPS
 15E9  C6 06 0269 R 05				MOV SH1TIMES_PROTECT,5
 15EE  5E					POP SI
 15EF  5F					POP DI
						POPA
 15F0  5A                    1	    POP DX 
 15F1  59                    1	    POP CX 
 15F2  5B                    1	    POP BX 
 15F3  58                    1	    POP AX 
 15F4  C3					RET
 15F5				INC_PROTECTBULLETLEFT ENDP
				
 15F5				INC_PROTECTBULLETRIGHT Proc
					    PUSHA
 15F5  50                    1	    PUSH AX 
 15F6  53                    1	    PUSH BX 
 15F7  51                    1	    PUSH CX 
 15F8  52                    1	    PUSH DX 
 15F9  57					PUSH DI
 15FA  56					PUSH SI
 15FB  C6 06 0274 R 01				MOV SH2PROTECT_FLAG,1
 1600  C6 06 0215 R 03				MOV SHIP2COLOR,PROTECT
 1605  E8 0FF9 R				CALL DRWSHIPS
 1608  C6 06 0275 R 05				MOV SH2TIMES_PROTECT,5
 160D  5E					POP SI
 160E  5F					POP DI
						POPA
 160F  5A                    1	    POP DX 
 1610  59                    1	    POP CX 
 1611  5B                    1	    POP BX 
 1612  58                    1	    POP AX 
 1613  C3					RET
 1614				INC_PROTECTBULLETRIGHT ENDP
				
				;**********************************************
				*******
 1614				 Speed_UP_Sh1_Health Proc
					 PUSHA
 1614  50                    1	    PUSH AX 
 1615  53                    1	    PUSH BX 
 1616  51                    1	    PUSH CX 
 1617  52                    1	    PUSH DX 
 1618  57				 PUSH DI
 1619  56				 PUSH SI
 161A  FF 06 0266 R			 inc Ship1_Speed	
 161E  5E				 POP SI
 161F  5F				 POP DI
Microsoft (R) Macro Assembler Version 5.10                  12/22/19 22:44:1
                                                             Page     1-92


					 POPA
 1620  5A                    1	    POP DX 
 1621  59                    1	    POP CX 
 1622  5B                    1	    POP BX 
 1623  58                    1	    POP AX 
 1624  C3				 RET
 1625				 Speed_UP_Sh1_Health ENDP
				;************************************
				
				;**********************************
 1625				Speed_UP_Sh2_Health PROC
					PUSHA
 1625  50                    1	    PUSH AX 
 1626  53                    1	    PUSH BX 
 1627  51                    1	    PUSH CX 
 1628  52                    1	    PUSH DX 
 1629  57				PUSH DI
 162A  56				PUSH SI
 162B  FF 06 0272 R			inc Ship2_Speed
 162F  5E				POP SI
 1630  5F				POP DI
					POPA
 1631  5A                    1	    POP DX 
 1632  59                    1	    POP CX 
 1633  5B                    1	    POP BX 
 1634  58                    1	    POP AX 
 1635  C3				RET
 1636  C3			RET
 1637				Speed_UP_Sh2_Health ENDP
				;**********************************************
				*************************
 1637				DELAY_SPEED1 Proc
					PUSHA
 1637  50                    1	    PUSH AX 
 1638  53                    1	    PUSH BX 
 1639  51                    1	    PUSH CX 
 163A  52                    1	    PUSH DX 
 163B  57				PUSH DI
 163C  56				PUSH SI	 
 163D  83 3E 0266 R 01			cmp Ship1_Speed,1
 1642  0F 86 164A R		JBE exit_out
 1646  FF 0E 0266 R		dec Ship1_Speed
 164A				exit_out:	
 164A  5E				POP SI
 164B  5F				POP DI
					POPA	
 164C  5A                    1	    POP DX 
 164D  59                    1	    POP CX 
 164E  5B                    1	    POP BX 
 164F  58                    1	    POP AX 
 1650  C3				RET
 1651				DELAY_SPEED1 ENDP
				;**********************************************
 1651				DELAY_SPEED2 Proc
Microsoft (R) Macro Assembler Version 5.10                  12/22/19 22:44:1
                                                             Page     1-93


					PUSHA
 1651  50                    1	    PUSH AX 
 1652  53                    1	    PUSH BX 
 1653  51                    1	    PUSH CX 
 1654  52                    1	    PUSH DX 
 1655  57				PUSH DI
 1656  56				PUSH SI	 
 1657  83 3E 0272 R 01			cmp Ship2_Speed,1
 165C  0F 86 1664 R		JBE exit_out1
 1660  FF 0E 0272 R		dec Ship2_Speed
 1664				exit_out1:	
 1664  5E				POP SI
 1665  5F				POP DI
					POPA	
 1666  5A                    1	    POP DX 
 1667  59                    1	    POP CX 
 1668  5B                    1	    POP BX 
 1669  58                    1	    POP AX 
 166A  C3				RET
 166B				DELAY_SPEED2 ENDP
				
				
 166B				INCSH2HEALTH PROC 
					PUSHA
 166B  50                    1	    PUSH AX 
 166C  53                    1	    PUSH BX 
 166D  51                    1	    PUSH CX 
 166E  52                    1	    PUSH DX 
 166F  57				PUSH DI
 1670  56				PUSH SI
 1671  83 3E 0276 R 0A			cmp sh2health,10
 1676  0F 84 1681 R			jz  conthb2
 167A  FF 06 0276 R			inc sh2health
 167E  E8 0F22 R			call drawhelthsh2
 1681					conthb2:
 1681  5E				POP SI
 1682  5F				POP DI
					POPA
 1683  5A                    1	    POP DX 
 1684  59                    1	    POP CX 
 1685  5B                    1	    POP BX 
 1686  58                    1	    POP AX 
 1687  C3				RET
 1688				INCSH2HEALTH ENDP
				
 1688				INCSH1HEALTH PROC 
					PUSHA
 1688  50                    1	    PUSH AX 
 1689  53                    1	    PUSH BX 
 168A  51                    1	    PUSH CX 
 168B  52                    1	    PUSH DX 
 168C  57				PUSH DI
 168D  56				PUSH SI
 168E  83 3E 026A R 0A			cmp sh1health,10
Microsoft (R) Macro Assembler Version 5.10                  12/22/19 22:44:1
                                                             Page     1-94


 1693  0F 84 169E R			jz  conthb
 1697  FF 06 026A R			inc sh1health
 169B  E8 0EBA R			call drawhelthsh1
 169E					conthb:
 169E  5E				POP SI
 169F  5F				POP DI
					POPA
 16A0  5A                    1	    POP DX 
 16A1  59                    1	    POP CX 
 16A2  5B                    1	    POP BX 
 16A3  58                    1	    POP AX 
 16A4  C3				RET
				
 16A5				INCSH1HEALTH ENDP
				
 16A5				changeColor proc
 16A5  80 3E 027D R 01		cmp fr,01h;flag for ship1 if bullet touch ship1
 16AA  0F 84 16B2 R		je color_Right; if yes chang color of ship1
 16AE  0F 85 16B5 R		jne check_color_Left;check for ship2
 16B2				color_Right:
 16B2  E8 174F R		call changeColorRight
 16B5				check_color_Left:
 16B5  80 3E 0271 R 00		cmp fl,00h;flag if bullet touch screen 
 16BA  0F 84 16FB R		JE exit1;do nothing
				;else change color of ship2
				drow_thick_line  sh2p1fx,sh2p1ENDx,sh2p1fy,Ship
				Sizep1y,ship2Damage; "dROW_THICK_line" IS MACRO
				 TO DRAW SHIP 2 PART 1
 16BE  B9 012C               1	        mov cx,sh2p1fx 
 16C1                        1	        ??00B6: 
 16C1  8B 16 0278 R          1	            mov DX, sh2p1fy 
 16C5  B3 1E                 1	            mov Bl,ShipSizep1y 
 16C7  B0 44                 1	            mov al,ship2Damage ;Pixel color 
 16C9  B4 0C                 1	            mov ah,0ch ;Draw Pixel Command 
 16CB                        1	            ??00B5: 
 16CB  CD 10                 1	                int 10h 
 16CD  83 C2 01              1	                add DX,1 
 16D0  FE CB                 1	                dec bl 
 16D2  75 F7                 1	            jnz ??00B5 
 16D4  41                    1	            inc cx 
 16D5  81 F9 0136            1	            cmp cx,sh2p1ENDx 
 16D9  75 E6                 1	        jnz ??00B6 
				drow_thick_line  sh2p2fx,sh2p2ENDx,sh2p2fy,Ship
				Sizep2y,ship2Damage  ; "dROW_THICK_line" IS MAC
				RO TO DRAW SHIP 2 PART 2
 16DB  B9 0126               1	        mov cx,sh2p2fx 
 16DE                        1	        ??00B8: 
 16DE  8B 16 027A R          1	            mov DX, sh2p2fy 
 16E2  B3 08                 1	            mov Bl,ShipSizep2y 
 16E4  B0 44                 1	            mov al,ship2Damage ;Pixel color 
 16E6  B4 0C                 1	            mov ah,0ch ;Draw Pixel Command 
 16E8                        1	            ??00B7: 
 16E8  CD 10                 1	                int 10h 
 16EA  83 C2 01              1	                add DX,1 
Microsoft (R) Macro Assembler Version 5.10                  12/22/19 22:44:1
                                                             Page     1-95


 16ED  FE CB                 1	                dec bl 
 16EF  75 F7                 1	            jnz ??00B7 
 16F1  41                    1	            inc cx 
 16F2  81 F9 012B            1	            cmp cx,sh2p2ENDx 
 16F6  75 E6                 1	        jnz ??00B8 
 16F8  EB 04 90			jmp continue ; to avoide out of range
				;******************
 16FB				exit1:
 16FB  EB 51 90			jmp exit;to avoide out of range
				;***************
 16FE				continue:
 16FE  50			push ax; to save it's value ,if it used in othe
				r function before 
 16FF  B8 FFFF			mov ax,0ffffh;time of change color of ship
 1702				Time_loop_Continue:
 1702  3D 0000			 cmp ax,0
 1705  48			 dec ax
 1706  0F 84 170C R		 jz Time_loop_End
 170A  75 F6			 jnz Time_loop_Continue
 170C				Time_loop_End:
 170C  58			pop ax
				;Returne color of ship 
				drow_thick_line  sh2p1fx,sh2p1ENDx,sh2p1fy,Ship
				Sizep1y,ship2color  ; "dROW_THICK_line" IS MACR
				O TO DR
 170D  B9 012C               1	        mov cx,sh2p1fx 
 1710                        1	        ??00BA: 
 1710  8B 16 0278 R          1	            mov DX, sh2p1fy 
 1714  B3 1E                 1	            mov Bl,ShipSizep1y 
 1716  A0 0215 R             1	            mov al,ship2color ;Pixel color 
 1719  B4 0C                 1	            mov ah,0ch ;Draw Pixel Command 
 171B                        1	            ??00B9: 
 171B  CD 10                 1	                int 10h 
 171D  83 C2 01              1	                add DX,1 
 1720  FE CB                 1	                dec bl 
 1722  75 F7                 1	            jnz ??00B9 
 1724  41                    1	            inc cx 
 1725  81 F9 0136            1	            cmp cx,sh2p1ENDx 
 1729  75 E5                 1	        jnz ??00BA 
				drow_thick_line  sh2p2fx,sh2p2ENDx,sh2p2fy,Ship
				Sizep2y,ship2color  ; "dROW_THICK_line" IS MACR
				O TO DRA
 172B  B9 0126               1	        mov cx,sh2p2fx 
 172E                        1	        ??00BC: 
 172E  8B 16 027A R          1	            mov DX, sh2p2fy 
 1732  B3 08                 1	            mov Bl,ShipSizep2y 
 1734  A0 0215 R             1	            mov al,ship2color ;Pixel color 
 1737  B4 0C                 1	            mov ah,0ch ;Draw Pixel Command 
 1739                        1	            ??00BB: 
 1739  CD 10                 1	                int 10h 
 173B  83 C2 01              1	                add DX,1 
 173E  FE CB                 1	                dec bl 
 1740  75 F7                 1	            jnz ??00BB 
 1742  41                    1	            inc cx 
Microsoft (R) Macro Assembler Version 5.10                  12/22/19 22:44:1
                                                             Page     1-96


 1743  81 F9 012B            1	            cmp cx,sh2p2ENDx 
 1747  75 E5                 1	        jnz ??00BC 
 1749  C6 06 0271 R 00		mov fl,00h;return default of flag value
 174E				exit:
 174E  C3			ret
 174F				changeColor endp
				;**************************************
 174F				changeColorRight proc
				;change color of ship1
				drow_thick_line  sh1p1fx,sh1p1ENDx,sh1p1fy,Ship
				Sizep1y,ship2Damage  ; "dROW_THICK_line" IS MAC
				RO TO DRAW SHIP 1 PART 1
 174F  B9 0005               1	        mov cx,sh1p1fx 
 1752                        1	        ??00BE: 
 1752  8B 16 026C R          1	            mov DX, sh1p1fy 
 1756  B3 1E                 1	            mov Bl,ShipSizep1y 
 1758  B0 44                 1	            mov al,ship2Damage ;Pixel color 
 175A  B4 0C                 1	            mov ah,0ch ;Draw Pixel Command 
 175C                        1	            ??00BD: 
 175C  CD 10                 1	                int 10h 
 175E  83 C2 01              1	                add DX,1 
 1761  FE CB                 1	                dec bl 
 1763  75 F7                 1	            jnz ??00BD 
 1765  41                    1	            inc cx 
 1766  83 F9 0F              1	            cmp cx,sh1p1ENDx 
 1769  75 E7                 1	        jnz ??00BE 
				drow_thick_line  sh1p2fx,sh1p2ENDx,sh1p2fy,Ship
				Sizep2y,ship2Damage  ; "dROW_THICK_line" 
 176B  B9 0010               1	        mov cx,sh1p2fx 
 176E                        1	        ??00C0: 
 176E  8B 16 026E R          1	            mov DX, sh1p2fy 
 1772  B3 08                 1	            mov Bl,ShipSizep2y 
 1774  B0 44                 1	            mov al,ship2Damage ;Pixel color 
 1776  B4 0C                 1	            mov ah,0ch ;Draw Pixel Command 
 1778                        1	            ??00BF: 
 1778  CD 10                 1	                int 10h 
 177A  83 C2 01              1	                add DX,1 
 177D  FE CB                 1	                dec bl 
 177F  75 F7                 1	            jnz ??00BF 
 1781  41                    1	            inc cx 
 1782  83 F9 15              1	            cmp cx,sh1p2ENDx 
 1785  75 E7                 1	        jnz ??00C0 
				;***************
 1787  50			push ax
 1788  B8 FFFF			mov ax,0ffffh;time of change color of ship
 178B				Time_loop_Continue1:
 178B  3D 0000			cmp ax,0
 178E  48			dec ax
 178F  0F 84 1795 R		jz Time_loop_End1
 1793  75 F6			jnz Time_loop_Continue1
 1795				Time_loop_End1:
 1795  58			pop ax
				;return color of ship1
				drow_thick_line  sh1p1fx,sh1p1ENDx,sh1p1fy,Ship
Microsoft (R) Macro Assembler Version 5.10                  12/22/19 22:44:1
                                                             Page     1-97


				Sizep1y,ship1color  ; "dROW_THICK_line" IS MACR
				O TO DRAW SHIP 1 PART 1
 1796  B9 0005               1	        mov cx,sh1p1fx 
 1799                        1	        ??00C2: 
 1799  8B 16 026C R          1	            mov DX, sh1p1fy 
 179D  B3 1E                 1	            mov Bl,ShipSizep1y 
 179F  A0 0214 R             1	            mov al,ship1color ;Pixel color 
 17A2  B4 0C                 1	            mov ah,0ch ;Draw Pixel Command 
 17A4                        1	            ??00C1: 
 17A4  CD 10                 1	                int 10h 
 17A6  83 C2 01              1	                add DX,1 
 17A9  FE CB                 1	                dec bl 
 17AB  75 F7                 1	            jnz ??00C1 
 17AD  41                    1	            inc cx 
 17AE  83 F9 0F              1	            cmp cx,sh1p1ENDx 
 17B1  75 E6                 1	        jnz ??00C2 
				drow_thick_line  sh1p2fx,sh1p2ENDx,sh1p2fy,Ship
				Sizep2y,ship1color  ; "dROW_THICK_line" 
 17B3  B9 0010               1	        mov cx,sh1p2fx 
 17B6                        1	        ??00C4: 
 17B6  8B 16 026E R          1	            mov DX, sh1p2fy 
 17BA  B3 08                 1	            mov Bl,ShipSizep2y 
 17BC  A0 0214 R             1	            mov al,ship1color ;Pixel color 
 17BF  B4 0C                 1	            mov ah,0ch ;Draw Pixel Command 
 17C1                        1	            ??00C3: 
 17C1  CD 10                 1	                int 10h 
 17C3  83 C2 01              1	                add DX,1 
 17C6  FE CB                 1	                dec bl 
 17C8  75 F7                 1	            jnz ??00C3 
 17CA  41                    1	            inc cx 
 17CB  83 F9 15              1	            cmp cx,sh1p2ENDx 
 17CE  75 E6                 1	        jnz ??00C4 
 17D0  C6 06 027D R 00		mov fr,00h;return default of flag value
 17D5				exit3:
 17D5  C3			ret
 17D6				changeColorRight endp
				
 17D6				CLRMAINMEMORY PROC
 17D6  C6 06 0002 R 00		        MOV CHAR1,0
 17DB  C6 06 0003 R 00		        MOV CHAR2,0
 17E0  C6 06 0004 R 00		        MOV CHAT_FLAG1, 0
 17E5  C6 06 0005 R 00		        MOV CHAT_FLAG2, 0
 17EA  C6 06 0006 R 00		        MOV game_flag1, 0
 17EF  C6 06 0007 R 00		        MOV game_flag2, 0
 17F4  C6 06 0008 R 00		        MOV GAME_LEVEL, 0
 17F9  C6 06 0009 R 00		        MOV SEND_INVITATION, 0
 17FE  C6 06 027E R 00		        MOV IsThereAWinner, 0
 1803  C3			        RET
 1804				CLRMAINMEMORY ENDP
				
 1804				CLRCHATMEMORY PROC
 1804  C6 06 0000 R 00		        MOV CURSOR1_CUR_X,0
 1809  C6 06 0001 R 00		        MOV CURSOR2_CUR_X,0
 180E  C6 06 0002 R 00		        MOV CHAR1, 0
Microsoft (R) Macro Assembler Version 5.10                  12/22/19 22:44:1
                                                             Page     1-98


 1813  C6 06 0003 R 00		        MOV CHAR2, 0
 1818  C3			        RET
 1819				CLRCHATMEMORY ENDP
				
 1819				CLRGAMEMEMORY PROC
				        ;Clear send/recieve buffers
 1819  C6 06 0002 R 00		        MOV CHAR1, 0
 181E  C6 06 0003 R 00		        MOV CHAR2, 0
				        ; Clear chat cursors
 1823  C6 06 0212 R 11		        MOV PLAYER1_CHATCURSOR, 017D
 1828  C6 06 0213 R 11		        MOV PLAYER2_CHATCURSOR, 017D
				        ; Reset winner flag
 182D  C6 06 027E R 00		        MOV IsThereAWinner, 00H
				        ; Reset variable data of ship1
 1832  C7 06 026C R 0001	        MOV sh1p1fy,1D
 1838  C7 06 026E R 000C	        MOV sh1p2fy,12D
				        ; Reset variable data of ship2
 183E  C7 06 0278 R 0001	        MOV sh2p1fy,1D
 1844  C7 06 027A R 000C	        MOV sh2p2fy,12D
				        ; Reset variable data of the reflector
 184A  C7 06 027F R 0001	        MOV REFfristY, 1D
 1850  C6 06 0281 R 01		        MOV REFflag, 1D
 1855  C7 06 0282 R 0FFF	        MOV REFCTR, 0FFFH
				        ; Reset no of bullets of each one
 185B  C6 06 0270 R 00		        MOV p1_bulls, 0
 1860  C6 06 027C R 00		        MOV p2_bulls, 0
				        ; Reset bullets array
 1865  81 3D FEFE		        CMP [DI], 0FEFEH
 1869  0F 85 1870 R		        JNE START_WITHOUT_INITIAL_DECREMENT
 186D  83 EF 04			        SUB DI,4
 1870				START_WITHOUT_INITIAL_DECREMENT:
 1870  C7 05 FFFF		        MOV [DI], 0FFFFH
 1874  C7 45 02 FFFF		        MOV [DI+2], 0FFFFH
 1879  81 FF 0284 R		        CMP DI,offset bullPoses
 187D  0F 84 1886 R		        JE FINISHED_CLEANING_BULLS
 1881  83 EF 04			        SUB DI,4
 1884  EB EA			        JMP START_WITHOUT_INITIAL_DECREMENT
 1886				FINISHED_CLEANING_BULLS:
				        ; Reset bullets counter
 1886  C7 06 0352 R 00FF	        MOV bullLCtr, bullLSpeed
 188C  C7 06 0354 R 0AFF	        MOV bullRCtr, bullRSpeed
				        ; Reset health
 1892  C7 06 026A R 000A		MOV sh1health,10D
 1898  C7 06 0276 R 000A	        MOV sh2health,10D  
				        ; Reset Powerup
 189E  66| C7 06 0359 R 0003FFFF        MOV POWERUP_COUNTER, POWERUP_TODELETE
 18A7  C6 06 035E R 00		        MOV POWERUP_ON, 0
 18AC  C6 06 035F R 00		        MOV POWERUP_L_IS_DRAWN, 0
 18B1  C6 06 0360 R 00		        MOV POWERUP_R_IS_DRAWN, 0
				        ; Reset ROCK
 18B6  C6 06 0368 R 0C		        MOV ROCKET_COLOR,0CH
 18BB  66| C7 06 0364 R 000FFFFF        MOV ROCKET_COUNTER, ROCKET_TODELETE
 18C4  C6 06 0369 R 00		        MOV ROCKET_ON, 0
 18C9  C6 06 036A R 00		        MOV ROCK_L_IS_DRAWN,0
Microsoft (R) Macro Assembler Version 5.10                  12/22/19 22:44:1
                                                             Page     1-99


 18CE  C6 06 036B R 00		        MOV ROCK_R_IS_DRAWN,0
				        ; Check for any undeleted powerups and 
				delete them
				       ; MOV HB_ON,0H
 18D3  C3			        RET
 18D4				CLRGAMEMEMORY ENDP
				
 18D4				PRINTCHARCHAT1 PROC
				        ; The chararter to be written is stored
				 in AL
 18D4  3C 0D			        CMP AL, 0DH     ; ASCII of Enter key
 18D6  0F 84 192F R		        JZ CLEAN_CHAT_AREA1
 18DA  3C 08			        CMP AL, 08H
 18DC  0F 85 1909 R		        JNZ NOT_BS1
 18E0  80 3E 0212 R 11		        CMP PLAYER1_CHATCURSOR,017D
 18E5  0F 84 194D R		        JZ  END_PRINTCHARCHAT1
 18E9  FE 0E 0212 R		        DEC PLAYER1_CHATCURSOR
				        SETCURSOR PLAYER1_CHATCURSOR,PLAYER1_ms
				g_py
 18ED  B4 02                 1	    MOV AH,02H 
 18EF  B7 00                 1	    MOV BH,00H 
 18F1  8A 16 0212 R          1	    MOV DL,PLAYER1_CHATCURSOR 
 18F5  B6 15                 1	    MOV DH,PLAYER1_msg_py 
 18F7  CD 10                 1	    INT 10H 
				        PRTCHAR 01," ", 00H
 18F9  B4 09                 1	    MOV AH,09H 
 18FB  B7 00                 1	    MOV BH,0 
 18FD  B0 20                 1	    MOV AL," " 
 18FF  B9 0001               1	    MOV CX,01 ; No of times 
 1902  B3 00                 1	    MOV BL,00H 
 1904  CD 10                 1	    INT 10H 
 1906  EB 45 90			        JMP END_PRINTCHARCHAT1
 1909				NOT_BS1:
				        SETCURSOR PLAYER1_CHATCURSOR,PLAYER1_ms
				g_py
 1909  B4 02                 1	    MOV AH,02H 
 190B  B7 00                 1	    MOV BH,00H 
 190D  8A 16 0212 R          1	    MOV DL,PLAYER1_CHATCURSOR 
 1911  B6 15                 1	    MOV DH,PLAYER1_msg_py 
 1913  CD 10                 1	    INT 10H 
				        PRTCHAR 1,AL,0FH
 1915  B4 09                 1	    MOV AH,09H 
 1917  B7 00                 1	    MOV BH,0 
 1919  8A C0                 1	    MOV AL,AL 
 191B  B9 0001               1	    MOV CX,1 ; No of times 
 191E  B3 0F                 1	    MOV BL,0FH 
 1920  CD 10                 1	    INT 10H 
 1922  FE 06 0212 R		        INC PLAYER1_CHATCURSOR
 1926  80 3E 0212 R 27		        CMP PLAYER1_CHATCURSOR, 39D
 192B  0F 86 194D R		        JNA END_PRINTCHARCHAT1
 192F				CLEAN_CHAT_AREA1:
 192F  C6 06 0212 R 11		        MOV PLAYER1_CHATCURSOR,017D
				        SETCURSOR PLAYER1_CHATCURSOR,PLAYER1_ms
				g_py
Microsoft (R) Macro Assembler Version 5.10                  12/22/19 22:44:1
                                                             Page     1-100


 1934  B4 02                 1	    MOV AH,02H 
 1936  B7 00                 1	    MOV BH,00H 
 1938  8A 16 0212 R          1	    MOV DL,PLAYER1_CHATCURSOR 
 193C  B6 15                 1	    MOV DH,PLAYER1_msg_py 
 193E  CD 10                 1	    INT 10H 
				        PRTCHAR 023D," ", 00H
 1940  B4 09                 1	    MOV AH,09H 
 1942  B7 00                 1	    MOV BH,0 
 1944  B0 20                 1	    MOV AL," " 
 1946  B9 0017               1	    MOV CX,023D ; No of times 
 1949  B3 00                 1	    MOV BL,00H 
 194B  CD 10                 1	    INT 10H 
 194D				END_PRINTCHARCHAT1:
 194D  C3			        RET 
 194E				PRINTCHARCHAT1 ENDP
				
 194E				PRINTCHARCHAT2 PROC
				        ; The chararter to be written is stored
				 in CHAR2
				        COMPARE_MSG 0DH   ; ASCII of Enter key
 194E  80 3E 0003 R 0D       1		CMP CHAR2, 0DH 
 1953  0F 84 19B0 R		        JZ CLEAN_CHAT_AREA2
 1957  80 3E 0003 R 08		        CMP CHAR2, 08H
 195C  0F 85 1989 R		        JNZ NOT_BS2
 1960  80 3E 0213 R 11		        CMP PLAYER2_CHATCURSOR,017D
 1965  0F 84 19CE R		        JZ  END_PRINTCHARCHAT2
 1969  FE 0E 0213 R		        DEC PLAYER2_CHATCURSOR
				        SETCURSOR PLAYER2_CHATCURSOR,PLAYER2_ms
				g_py-1
 196D  B4 02                 1	    MOV AH,02H 
 196F  B7 00                 1	    MOV BH,00H 
 1971  8A 16 0213 R          1	    MOV DL,PLAYER2_CHATCURSOR 
 1975  B6 17                 1	    MOV DH,PLAYER2_msg_py-1 
 1977  CD 10                 1	    INT 10H 
				        PRTCHAR 01," ", 00H
 1979  B4 09                 1	    MOV AH,09H 
 197B  B7 00                 1	    MOV BH,0 
 197D  B0 20                 1	    MOV AL," " 
 197F  B9 0001               1	    MOV CX,01 ; No of times 
 1982  B3 00                 1	    MOV BL,00H 
 1984  CD 10                 1	    INT 10H 
 1986  EB 46 90			        JMP END_PRINTCHARCHAT2
 1989				NOT_BS2:
				        SETCURSOR PLAYER2_CHATCURSOR,PLAYER2_ms
				g_py-1
 1989  B4 02                 1	    MOV AH,02H 
 198B  B7 00                 1	    MOV BH,00H 
 198D  8A 16 0213 R          1	    MOV DL,PLAYER2_CHATCURSOR 
 1991  B6 17                 1	    MOV DH,PLAYER2_msg_py-1 
 1993  CD 10                 1	    INT 10H 
				        PRTCHAR 1,CHAR2,0FH
 1995  B4 09                 1	    MOV AH,09H 
 1997  B7 00                 1	    MOV BH,0 
 1999  A0 0003 R             1	    MOV AL,CHAR2 
Microsoft (R) Macro Assembler Version 5.10                  12/22/19 22:44:1
                                                             Page     1-101


 199C  B9 0001               1	    MOV CX,1 ; No of times 
 199F  B3 0F                 1	    MOV BL,0FH 
 19A1  CD 10                 1	    INT 10H 
 19A3  FE 06 0213 R		        INC PLAYER2_CHATCURSOR
 19A7  80 3E 0213 R 27		        CMP PLAYER2_CHATCURSOR, 039D
 19AC  0F 86 19CE R		        JNA END_PRINTCHARCHAT2 
 19B0				CLEAN_CHAT_AREA2:
 19B0  C6 06 0213 R 11		        MOV PLAYER2_CHATCURSOR,017D
				        SETCURSOR PLAYER2_CHATCURSOR,PLAYER2_ms
				g_py-1
 19B5  B4 02                 1	    MOV AH,02H 
 19B7  B7 00                 1	    MOV BH,00H 
 19B9  8A 16 0213 R          1	    MOV DL,PLAYER2_CHATCURSOR 
 19BD  B6 17                 1	    MOV DH,PLAYER2_msg_py-1 
 19BF  CD 10                 1	    INT 10H 
				        PRTCHAR 023D," ", 00H
 19C1  B4 09                 1	    MOV AH,09H 
 19C3  B7 00                 1	    MOV BH,0 
 19C5  B0 20                 1	    MOV AL," " 
 19C7  B9 0017               1	    MOV CX,023D ; No of times 
 19CA  B3 00                 1	    MOV BL,00H 
 19CC  CD 10                 1	    INT 10H 
 19CE				END_PRINTCHARCHAT2:        
 19CE  C3			        RET 
 19CF				PRINTCHARCHAT2 ENDP
				
				END	MAIN

Microsoft (R) Macro Assembler Version 5.10                  12/22/19 22:44:1
                                                             Symbols-1


Macros:

		N a m e			Lines

ADDBULL  . . . . . . . . . . . .  	  15
ADDBULR  . . . . . . . . . . . .  	  16
CALL_MACRO_IF_EQUAL  . . . . . .  	   3
CALL_PROC_IF_EQUAL . . . . . . .  	   3
CHAT_MODE1 . . . . . . . . . . .  	  66
CHECKKEY . . . . . . . . . . . .  	   2
CLEARKEYBOARDBUFFER  . . . . . .  	   6
CLRS . . . . . . . . . . . . . .  	   5
COMPARE_KEY  . . . . . . . . . .  	   1
COMPARE_KEY_ASCII  . . . . . . .  	   1
COMPARE_MSG  . . . . . . . . . .  	   1
CONFIG . . . . . . . . . . . . .  	  21
CURSOR1  . . . . . . . . . . . .  	   5
CURSOR1_ON . . . . . . . . . . .  	   3
CURSOR_ON  . . . . . . . . . . .  	   3
DELAY  . . . . . . . . . . . . .  	   9
DELETEP_POWERUP  . . . . . . . .  	  18
DELETEP_ROCKET . . . . . . . . .  	  16
DELETE_POWERUP_ONLY  . . . . . .  	  15
DELETE_ROCK_ONLY . . . . . . . .  	  15
DETERMINE_MODE . . . . . . . . .  	   4
DROWPRE_POWERUP  . . . . . . . .  	  28
DROWPRE_ROCKET . . . . . . . . .  	  33
DROWROW  . . . . . . . . . . . .  	   9
DROW_THICK_LINE  . . . . . . . .  	  14
DRWLINECENTER  . . . . . . . . .  	   2
DRWPX  . . . . . . . . . . . . .  	   3
GETCURSOR  . . . . . . . . . . .  	   3
GETKEY . . . . . . . . . . . . .  	   2
GETKEY1  . . . . . . . . . . . .  	   2
GETKEY2  . . . . . . . . . . . .  	   2
GETKEY_NOWAIT  . . . . . . . . .  	   3
HALT . . . . . . . . . . . . . .  	   2
HANDLEBS1  . . . . . . . . . . .  	  11
HANDLEBS2  . . . . . . . . . . .  	  11
INITBUL  . . . . . . . . . . . .  	  13
INVERTREF  . . . . . . . . . . .  	   1
MOVEDOWN . . . . . . . . . . . .  	   6
MOVEUP . . . . . . . . . . . . .  	   7
MOVE_CURSOR  . . . . . . . . . .  	   5
MVREFL . . . . . . . . . . . . .  	   7
MVSH1DOWN  . . . . . . . . . . .  	  13
MVSH1UP  . . . . . . . . . . . .  	  13
MVSH2DOWN  . . . . . . . . . . .  	  13
MVSH2UP  . . . . . . . . . . . .  	  13
NAMEPAGE . . . . . . . . . . . .  	  28
NAME_PAGE  . . . . . . . . . . .  	  14
PAUSE  . . . . . . . . . . . . .  	  17
PAUSE1 . . . . . . . . . . . . .  	   1
POPA . . . . . . . . . . . . . .  	   4
Microsoft (R) Macro Assembler Version 5.10                  12/22/19 22:44:1
                                                             Symbols-2


PREP_BACKBROUND  . . . . . . . .  	   6
PRINTMESSAGE . . . . . . . . . .  	   3
PRINTMSG . . . . . . . . . . . .  	   3
PRTCHAR  . . . . . . . . . . . .  	   6
PRTCHAR1 . . . . . . . . . . . .  	  11
PRTCHAR2 . . . . . . . . . . . .  	  11
PUSHA  . . . . . . . . . . . . .  	   4
RANDOM0_1  . . . . . . . . . . .  	   6
READ . . . . . . . . . . . . . .  	   3
READ1  . . . . . . . . . . . . .  	   3
RECMSG . . . . . . . . . . . . .  	  12
REFMVDOWN  . . . . . . . . . . .  	   6
REFMVUP  . . . . . . . . . . . .  	   6
SCROLL . . . . . . . . . . . . .  	   8
SCROLLDOWN . . . . . . . . . . .  	   8
SCROLLDOWN1  . . . . . . . . . .  	   1
SCROLLDOWN2  . . . . . . . . . .  	   1
SCROLLUP1  . . . . . . . . . . .  	   1
SCROLLUP2  . . . . . . . . . . .  	   1
SENDMSG  . . . . . . . . . . . .  	  11
SETCURSOR  . . . . . . . . . . .  	   5
TOVID  . . . . . . . . . . . . .  	   5

Segments and Groups:

                N a m e         	Size	Length	 Align	Combine Class

DGROUP . . . . . . . . . . . . .  	GROUP
  _DATA  . . . . . . . . . . . .  	16 Bit	0396	WORD	PUBLIC	'DATA'
  STACK  . . . . . . . . . . . .  	16 Bit	0040	PARA	STACK	'STACK'
_TEXT  . . . . . . . . . . . . .  	16 Bit	19CF	WORD	PUBLIC	'CODE'

Symbols:            

                N a m e         	Type	 Value	 Attr

ACTUALSIZE . . . . . . . . . . .  	L BYTE	036D	_DATA
ACTUALSIZE1  . . . . . . . . . .  	L BYTE	0051	_DATA

BGCOLOR  . . . . . . . . . . . .  	NUMBER	0000	
BOARDER1EX . . . . . . . . . . .  	NUMBER	0280	
BOARDER1FX . . . . . . . . . . .  	NUMBER	0000	
BOARDER1FY . . . . . . . . . . .  	NUMBER	0091	
BOARDERTHICK . . . . . . . . . .  	NUMBER	0002	
BOARDSCOLOR  . . . . . . . . . .  	NUMBER	0043	
BUFFERDATA . . . . . . . . . . .  	L BYTE	036E	_DATA	Length = 0028
BUFFERSIZE . . . . . . . . . . .  	L BYTE	036C	_DATA
BULLLCTR . . . . . . . . . . . .  	L WORD	0352	_DATA
BULLLPWR . . . . . . . . . . . .  	L WORD	0350	_DATA
BULLLSPEED . . . . . . . . . . .  	NUMBER	00FF	
BULLPOSES  . . . . . . . . . . .  	L WORD	0284	_DATA	Length = 0064
BULLRCTR . . . . . . . . . . . .  	L WORD	0354	_DATA
BULLRPWR . . . . . . . . . . . .  	L WORD	034E	_DATA
Microsoft (R) Macro Assembler Version 5.10                  12/22/19 22:44:1
                                                             Symbols-3


BULLRSPEED . . . . . . . . . . .  	NUMBER	0AFF	
BULL_CHECK_HELTROCKLEFT  . . . .  	L NEAR	111E	_TEXT
BULL_CHECK_OTHERS  . . . . . . .  	L NEAR	1115	_TEXT
BULL_CHECK_POWERUPRIGHT  . . . .  	L NEAR	1187	_TEXT
BULL_CHECK_REFL  . . . . . . . .  	L NEAR	10ED	_TEXT
BULL_CHECK_ROCKET  . . . . . . .  	L NEAR	1115	_TEXT
BULL_CHECK_ROCKET1 . . . . . . .  	L NEAR	127B	_TEXT
BULL_OUT_LB  . . . . . . . . . .  	L NEAR	1398	_TEXT
BULR_CHECK_HELTHROCKLEFT . . . .  	L NEAR	1284	_TEXT
BULR_CHECK_OTHERS  . . . . . . .  	L NEAR	127B	_TEXT
BULR_CHECK_POWERUPRIGHT  . . . .  	L NEAR	12E7	_TEXT
BULR_CHECK_REFL  . . . . . . . .  	L NEAR	1258	_TEXT
BUL_START_LB . . . . . . . . . .  	L NEAR	1091	_TEXT
BUW  . . . . . . . . . . . . . .  	NUMBER	0014	

CHANGECOLOR  . . . . . . . . . .  	N PROC	16A5	_TEXT	Length = 00AA
CHANGECOLORRIGHT . . . . . . . .  	N PROC	174F	_TEXT	Length = 0087
CHAR1  . . . . . . . . . . . . .  	L BYTE	0002	_DATA
CHAR2  . . . . . . . . . . . . .  	L BYTE	0003	_DATA
CHAT . . . . . . . . . . . . . .  	L NEAR	01BC	_TEXT
CHAT_FLAG1 . . . . . . . . . . .  	L BYTE	0004	_DATA
CHAT_FLAG2 . . . . . . . . . . .  	L BYTE	0005	_DATA
CHECK_COLOR_LEFT . . . . . . . .  	L NEAR	16B5	_TEXT
CHECK_DOWN_1 . . . . . . . . . .  	L NEAR	0AF2	_TEXT
CHECK_DOWN_2 . . . . . . . . . .  	L NEAR	0D23	_TEXT
CHECK_POWER_UP . . . . . . . . .  	L NEAR	1160	_TEXT
CHECK_POWER_UP_R . . . . . . . .  	L NEAR	12C3	_TEXT
CHECK_RECIEVE_F4 . . . . . . . .  	L NEAR	08C8	_TEXT
CHECK_RIGHT_1  . . . . . . . . .  	L NEAR	0B74	_TEXT
CHECK_SPACE_2  . . . . . . . . .  	L NEAR	0DA6	_TEXT
CHK_BULL . . . . . . . . . . . .  	L NEAR	087A	_TEXT
CHK_PAUSE  . . . . . . . . . . .  	L NEAR	09D9	_TEXT
CHK_PAUSE2 . . . . . . . . . . .  	L NEAR	0C24	_TEXT
CLEAN_CHAT_AREA1 . . . . . . . .  	L NEAR	192F	_TEXT
CLEAN_CHAT_AREA2 . . . . . . . .  	L NEAR	19B0	_TEXT
CLRCHATMEMORY  . . . . . . . . .  	N PROC	1804	_TEXT	Length = 0015
CLRGAMEMEMORY  . . . . . . . . .  	N PROC	1819	_TEXT	Length = 00BB
CLRMAINMEMORY  . . . . . . . . .  	N PROC	17D6	_TEXT	Length = 002E
CMPARE_PROTECT . . . . . . . . .  	L NEAR	158F	_TEXT
CMPARE_PROTECT1  . . . . . . . .  	L NEAR	15C9	_TEXT
CMPARE_SPEAD_DOWN  . . . . . . .  	L NEAR	1580	_TEXT
CMPARE_SPEAD_DOWN1 . . . . . . .  	L NEAR	15BA	_TEXT
CMPARE_SPEAD_UP  . . . . . . . .  	L NEAR	1571	_TEXT
CMPARE_SPEAD_UP1 . . . . . . . .  	L NEAR	15AB	_TEXT
CMP_F2_TO_GAME . . . . . . . . .  	L NEAR	0119	_TEXT
COLOR_RIGHT  . . . . . . . . . .  	L NEAR	16B2	_TEXT
COMPARE_ESC  . . . . . . . . . .  	L NEAR	0145	_TEXT
COMPARE_FEFE . . . . . . . . . .  	L NEAR	109A	_TEXT
COMPARE_FOR_CHAT . . . . . . . .  	L NEAR	019A	_TEXT
COMPARE_FOR_GAME_LOOP  . . . . .  	L NEAR	01AB	_TEXT
CONTHB . . . . . . . . . . . . .  	L NEAR	169E	_TEXT
CONTHB2  . . . . . . . . . . . .  	L NEAR	1681	_TEXT
CONTINUE . . . . . . . . . . . .  	L NEAR	16FE	_TEXT
CONTINUE0  . . . . . . . . . . .  	L NEAR	0868	_TEXT
Microsoft (R) Macro Assembler Version 5.10                  12/22/19 22:44:1
                                                             Symbols-4


CONTINUE1  . . . . . . . . . . .  	L NEAR	0871	_TEXT
CONTINUE2  . . . . . . . . . . .  	L NEAR	073D	_TEXT
CURSOR1_CUR_X  . . . . . . . . .  	L BYTE	0000	_DATA
CURSOR1_Y  . . . . . . . . . . .  	NUMBER	000B	
CURSOR2_CUR_X  . . . . . . . . .  	L BYTE	0001	_DATA
CURSOR2_Y  . . . . . . . . . . .  	NUMBER	0017	

DECP1HEALTH  . . . . . . . . . .  	N PROC	1444	_TEXT	Length = 008F
DECP2HEALTH  . . . . . . . . . .  	N PROC	14D3	_TEXT	Length = 008F
DEC_CTRS_LB  . . . . . . . . . .  	L NEAR	08F0	_TEXT
DELAY_SPEED1 . . . . . . . . . .  	N PROC	1637	_TEXT	Length = 001A
DELAY_SPEED2 . . . . . . . . . .  	N PROC	1651	_TEXT	Length = 001A
DELBUL . . . . . . . . . . . . .  	N PROC	13F7	_TEXT	Length = 0040
DELETE_POWERUP . . . . . . . . .  	L NEAR	06CB	_TEXT
DELETE_ROCKET  . . . . . . . . .  	L NEAR	0800	_TEXT
DELETE_ROCK_ONLYL  . . . . . . .  	L NEAR	115D	_TEXT
DELETE_ROCK_ONLYR  . . . . . . .  	L NEAR	12C0	_TEXT
DEL_BUL  . . . . . . . . . . . .  	L NEAR	1379	_TEXT
DEL_BUL_LEFT . . . . . . . . . .  	L NEAR	1218	_TEXT
DEL_BUL_RIGHT  . . . . . . . . .  	L NEAR	1375	_TEXT
DN_OUT_LB  . . . . . . . . . . .  	L NEAR	0951	_TEXT
DRAWHELTHSH1 . . . . . . . . . .  	N PROC	0EBA	_TEXT	Length = 0068
DRAWHELTHSH2 . . . . . . . . . .  	N PROC	0F22	_TEXT	Length = 0068
DROW_POWERUP . . . . . . . . . .  	L NEAR	062F	_TEXT
DROW_ROCKET  . . . . . . . . . .  	L NEAR	0759	_TEXT
DRWINFO  . . . . . . . . . . . .  	N PROC	0E0B	_TEXT	Length = 00AF
DRWREFL  . . . . . . . . . . . .  	N PROC	1070	_TEXT	Length = 001E
DRWSHIPS . . . . . . . . . . . .  	N PROC	0FF9	_TEXT	Length = 0077
DRWWINNER  . . . . . . . . . . .  	N PROC	0F8A	_TEXT	Length = 006E

EMDD . . . . . . . . . . . . . .  	L NEAR	147E	_TEXT
EMDD2  . . . . . . . . . . . . .  	L NEAR	150D	_TEXT
ENDG . . . . . . . . . . . . . .  	L NEAR	01D1	_TEXT
ENDINP1  . . . . . . . . . . . .  	L NEAR	0BF0	_TEXT
ENDINP2  . . . . . . . . . . . .  	L NEAR	0E07	_TEXT
ENDPROC  . . . . . . . . . . . .  	L NEAR	159B	_TEXT
ENDPROC1 . . . . . . . . . . . .  	L NEAR	15D5	_TEXT
ENDTLAB  . . . . . . . . . . . .  	L NEAR	0FE6	_TEXT
END_BUL_LP . . . . . . . . . . .  	L NEAR	1382	_TEXT
END_BUL_LP_WITHOUT_INC . . . . .  	L NEAR	1385	_TEXT
END_PRINTCHARCHAT1 . . . . . . .  	L NEAR	194D	_TEXT
END_PRINTCHARCHAT2 . . . . . . .  	L NEAR	19CE	_TEXT
EQUAL_WINDOW . . . . . . . . . .  	L BYTE	0200	_DATA
EXIT . . . . . . . . . . . . . .  	L NEAR	174E	_TEXT
EXIT1  . . . . . . . . . . . . .  	L NEAR	16FB	_TEXT
EXIT3  . . . . . . . . . . . . .  	L NEAR	17D5	_TEXT
EXIT_IF_F4 . . . . . . . . . . .  	L NEAR	0897	_TEXT
EXIT_OUT . . . . . . . . . . . .  	L NEAR	164A	_TEXT
EXIT_OUT1  . . . . . . . . . . .  	L NEAR	1664	_TEXT

FINISHED_CLEANING_BULLS  . . . .  	L NEAR	1886	_TEXT
FL . . . . . . . . . . . . . . .  	L BYTE	0271	_DATA
FOUND_X_ROCK_LEFT  . . . . . . .  	L NEAR	1135	_TEXT
FOUND_X_ROCK_RIGHT . . . . . . .  	L NEAR	113D	_TEXT
Microsoft (R) Macro Assembler Version 5.10                  12/22/19 22:44:1
                                                             Symbols-5


FR . . . . . . . . . . . . . . .  	L BYTE	027D	_DATA

GAME . . . . . . . . . . . . . .  	L NEAR	01C2	_TEXT
GAMECHAT . . . . . . . . . . . .  	N PROC	0FF8	_TEXT	Length = 0001
GAME_FLAG1 . . . . . . . . . . .  	L BYTE	0006	_DATA
GAME_FLAG2 . . . . . . . . . . .  	L BYTE	0007	_DATA
GAME_LEVEL . . . . . . . . . . .  	L BYTE	0008	_DATA
GM_LP  . . . . . . . . . . . . .  	L NEAR	0609	_TEXT
GO . . . . . . . . . . . . . . .  	L NEAR	0A66	_TEXT
GO2  . . . . . . . . . . . . . .  	L NEAR	0C96	_TEXT
GO_BULLS_GO  . . . . . . . . . .  	L NEAR	10A3	_TEXT
GO_CHAT_MODE . . . . . . . . . .  	L NEAR	0239	_TEXT

HELTHCOLOR . . . . . . . . . . .  	NUMBER	0004	
HELTHFY  . . . . . . . . . . . .  	NUMBER	0097	
HELTHLEN . . . . . . . . . . . .  	NUMBER	0008	
HELTHSH1EX . . . . . . . . . . .  	L WORD	022A	_DATA
HELTHSH1FX . . . . . . . . . . .  	L WORD	0216	_DATA
HELTHSH2EX . . . . . . . . . . .  	L WORD	0252	_DATA
HELTHSH2FX . . . . . . . . . . .  	L WORD	023E	_DATA
HELTH_UP . . . . . . . . . . . .  	NUMBER	0004	

INCSH1HEALTH . . . . . . . . . .  	N PROC	1688	_TEXT	Length = 001D
INCSH2HEALTH . . . . . . . . . .  	N PROC	166B	_TEXT	Length = 001D
INC_PROTECTBULLETLEFT  . . . . .  	N PROC	15D6	_TEXT	Length = 001F
INC_PROTECTBULLETRIGHT . . . . .  	N PROC	15F5	_TEXT	Length = 001F
INVBUL . . . . . . . . . . . . .  	N PROC	1437	_TEXT	Length = 000D
INV_BULL . . . . . . . . . . . .  	L NEAR	1388	_TEXT
INV_BULR . . . . . . . . . . . .  	L NEAR	1390	_TEXT
INV_UP_DN  . . . . . . . . . . .  	L NEAR	094C	_TEXT
INV_UP_LB  . . . . . . . . . . .  	L NEAR	0996	_TEXT
ISTHEREAWINNER . . . . . . . . .  	L BYTE	027E	_DATA

LABDC1 . . . . . . . . . . . . .  	L NEAR	1477	_TEXT
LABDC21  . . . . . . . . . . . .  	L NEAR	1506	_TEXT
LABH1  . . . . . . . . . . . . .  	L NEAR	0EF6	_TEXT
LABH2  . . . . . . . . . . . . .  	L NEAR	0EC6	_TEXT
LABH3  . . . . . . . . . . . . .  	L NEAR	0F2E	_TEXT
LABH4  . . . . . . . . . . . . .  	L NEAR	0F5E	_TEXT
LABT1  . . . . . . . . . . . . .  	L NEAR	0FC8	_TEXT
LABT2  . . . . . . . . . . . . .  	L NEAR	0FD2	_TEXT
LABT3  . . . . . . . . . . . . .  	L NEAR	0FDC	_TEXT
LB . . . . . . . . . . . . . . .  	L NEAR	04B6	_TEXT
LEVEL_TWO  . . . . . . . . . . .  	L NEAR	0575	_TEXT

MAIN . . . . . . . . . . . . . .  	F PROC	0000	_TEXT	Length = 01DE
MAIN_GET_USER_INP  . . . . . . .  	L NEAR	00E1	_TEXT
MAIN_MENU  . . . . . . . . . . .  	L NEAR	00DB	_TEXT
MAIN_MENU_PRE  . . . . . . . . .  	L NEAR	00B7	_TEXT
MAIN_RECIVE_USER_INP . . . . . .  	L NEAR	016C	_TEXT
MES  . . . . . . . . . . . . . .  	L BYTE	001E	_DATA
MESSHIP1 . . . . . . . . . . . .  	L BYTE	0038	_DATA
MOVE_BULLET_LEFT . . . . . . . .  	L NEAR	1212	_TEXT
MOVE_BULLET_RIGHT  . . . . . . .  	L NEAR	136F	_TEXT
Microsoft (R) Macro Assembler Version 5.10                  12/22/19 22:44:1
                                                             Symbols-6


MVBULL . . . . . . . . . . . . .  	N PROC	1399	_TEXT	Length = 002F
MVBULLSPROC  . . . . . . . . . .  	F PROC	108E	_TEXT	Length = 030B
MVBULR . . . . . . . . . . . . .  	N PROC	13C8	_TEXT	Length = 002F
MVREFL_LB  . . . . . . . . . . .  	L NEAR	0901	_TEXT
MV_UP  . . . . . . . . . . . . .  	L NEAR	0955	_TEXT
MYBUFFER . . . . . . . . . . . .  	L BYTE	036C	_DATA

NOT_BS1  . . . . . . . . . . . .  	L NEAR	1909	_TEXT
NOT_BS2  . . . . . . . . . . . .  	L NEAR	1989	_TEXT
NO_WINNER_1  . . . . . . . . . .  	L NEAR	10EA	_TEXT
NO_WINNER_2  . . . . . . . . . .  	L NEAR	1255	_TEXT

OUT_DECH1_LB . . . . . . . . . .  	L NEAR	14CE	_TEXT
OUT_DECH2_LB . . . . . . . . . .  	L NEAR	155D	_TEXT

P1_BULLS . . . . . . . . . . . .  	L BYTE	0270	_DATA
P2_BULLS . . . . . . . . . . . .  	L BYTE	027C	_DATA
PLAYER1_CHATCURSOR . . . . . . .  	L BYTE	0212	_DATA
PLAYER1_MSG_PY . . . . . . . . .  	NUMBER	0015	
PLAYER1_SC_PX  . . . . . . . . .  	NUMBER	0001	
PLAYER1_WINS . . . . . . . . . .  	L NEAR	1510	_TEXT
PLAYER2_CHATCURSOR . . . . . . .  	L BYTE	0213	_DATA
PLAYER2_MSG_PY . . . . . . . . .  	NUMBER	0018	
PLAYER2_SC_PX  . . . . . . . . .  	NUMBER	0014	
PLAYER2_WINS . . . . . . . . . .  	L NEAR	1481	_TEXT
PLAYERSHIP1  . . . . . . . . . .  	L BYTE	000A	_DATA	Length = 000F
PLAYERSHIP2  . . . . . . . . . .  	L BYTE	001A	_DATA
PLAYER_SC_PY . . . . . . . . . .  	NUMBER	0013	
POWERUPL_EX  . . . . . . . . . .  	NUMBER	0065	
POWERUPL_FX  . . . . . . . . . .  	NUMBER	005F	
POWERUPR_EX  . . . . . . . . . .  	NUMBER	00D3	
POWERUPR_FX  . . . . . . . . . .  	NUMBER	00CE	
POWERUP_COLOR  . . . . . . . . .  	L BYTE	035D	_DATA
POWERUP_COUNTER  . . . . . . . .  	L DWORD	0359	_DATA
POWERUP_FY . . . . . . . . . . .  	L WORD	0357	_DATA
POWERUP_LEN  . . . . . . . . . .  	NUMBER	0008	
POWERUP_L_IS_DRAWN . . . . . . .  	L BYTE	035F	_DATA
POWERUP_MAXY . . . . . . . . . .  	NUMBER	0082	
POWERUP_ON . . . . . . . . . . .  	L BYTE	035E	_DATA
POWERUP_R_IS_DRAWN . . . . . . .  	L BYTE	0360	_DATA
POWERUP_TODELETE . . . . . . . .  	NUMBER	0003FFFF 
POWERUP_TODROW . . . . . . . . .  	NUMBER	0003FFFF 
POWERUP_XFLAG  . . . . . . . . .  	L BYTE	0356	_DATA
POWER_UP_CHECK_TYPE_SH1  . . . .  	N PROC	159C	_TEXT	Length = 003A
POWER_UP_CHECK_TYPE_SH2  . . . .  	N PROC	1562	_TEXT	Length = 003A
PRINTCHARCHAT1 . . . . . . . . .  	N PROC	18D4	_TEXT	Length = 007A
PRINTCHARCHAT2 . . . . . . . . .  	N PROC	194E	_TEXT	Length = 0081
PRINT_CHAR1  . . . . . . . . . .  	L NEAR	0BD2	_TEXT
PRINT_CHAR2  . . . . . . . . . .  	L NEAR	0E04	_TEXT
PRINT_CMP_FLAG2  . . . . . . . .  	L NEAR	020B	_TEXT
PRIN_CMP_FLAG2 . . . . . . . . .  	L NEAR	04E1	_TEXT
PROTECT  . . . . . . . . . . . .  	NUMBER	0003	

RECIVE_LEVEL . . . . . . . . . .  	L NEAR	059F	_TEXT
Microsoft (R) Macro Assembler Version 5.10                  12/22/19 22:44:1
                                                             Symbols-7


RECIVE_LEVEL_TWO . . . . . . . .  	L NEAR	05D1	_TEXT
RECIVE_NAME_F  . . . . . . . . .  	L BYTE	0053	_DATA
REFCTR . . . . . . . . . . . . .  	L WORD	0282	_DATA
REFENDX  . . . . . . . . . . . .  	NUMBER	009C	
REFFLAG  . . . . . . . . . . . .  	L BYTE	0281	_DATA
REFFRISTX  . . . . . . . . . . .  	NUMBER	0097	
REFFRISTY  . . . . . . . . . . .  	L WORD	027F	_DATA
REFLECTORCOLOR . . . . . . . . .  	NUMBER	0056	
REFLECTORLEN . . . . . . . . . .  	NUMBER	003C	
REFSPEED . . . . . . . . . . . .  	NUMBER	0FFF	
REF_END_LB . . . . . . . . . . .  	L NEAR	099C	_TEXT
ROCKETL_EX . . . . . . . . . . .  	NUMBER	0050	
ROCKETL_FX . . . . . . . . . . .  	NUMBER	004B	
ROCKETR_EX . . . . . . . . . . .  	NUMBER	00E7	
ROCKETR_FX . . . . . . . . . . .  	NUMBER	00E2	
ROCKET_COLOR . . . . . . . . . .  	L BYTE	0368	_DATA
ROCKET_COUNTER . . . . . . . . .  	L DWORD	0364	_DATA
ROCKET_FY  . . . . . . . . . . .  	L WORD	0362	_DATA
ROCKET_LEN . . . . . . . . . . .  	NUMBER	001C	
ROCKET_MAXY  . . . . . . . . . .  	NUMBER	006E	
ROCKET_ON  . . . . . . . . . . .  	L BYTE	0369	_DATA
ROCKET_ONELY . . . . . . . . . .  	L NEAR	077F	_TEXT
ROCKET_TODELETE  . . . . . . . .  	NUMBER	000FFFFF 
ROCKET_TODROW  . . . . . . . . .  	NUMBER	000FFFFF 
ROCKET_XFLAG . . . . . . . . . .  	L BYTE	0361	_DATA
ROCK_L_IS_DRAWN  . . . . . . . .  	L BYTE	036A	_DATA
ROCK_R_IS_DRAWN  . . . . . . . .  	L BYTE	036B	_DATA
R_FOUND_X_ROCK_LEFT  . . . . . .  	L NEAR	1298	_TEXT
R_FOUND_X_ROCK_RIGHT . . . . . .  	L NEAR	12A0	_TEXT
R_MV . . . . . . . . . . . . . .  	L NEAR	121F	_TEXT
R_SEARCH_POWERUP_Y . . . . . . .  	L NEAR	12FF	_TEXT
R_SEARCH_ROCK_Y  . . . . . . . .  	L NEAR	12A5	_TEXT

SCN  . . . . . . . . . . . . . .  	L BYTE	0050	_DATA
SEARCH_POWERUP_Y . . . . . . . .  	L NEAR	11A2	_TEXT
SEARCH_ROCK_Y  . . . . . . . . .  	L NEAR	1142	_TEXT
SENDINP1 . . . . . . . . . . . .  	L NEAR	0BD8	_TEXT
SEND_INVITATION  . . . . . . . .  	L BYTE	0009	_DATA
SEND_NAME_F  . . . . . . . . . .  	L BYTE	0052	_DATA
SH1HEALTH  . . . . . . . . . . .  	L WORD	026A	_DATA
SH1P1ENDX  . . . . . . . . . . .  	NUMBER	000F	
SH1P1FX  . . . . . . . . . . . .  	NUMBER	0005	
SH1P1FY  . . . . . . . . . . . .  	L WORD	026C	_DATA
SH1P2ENDX  . . . . . . . . . . .  	NUMBER	0015	
SH1P2FX  . . . . . . . . . . . .  	NUMBER	0010	
SH1P2FY  . . . . . . . . . . . .  	L WORD	026E	_DATA
SH1PROTECT_FLAG  . . . . . . . .  	L BYTE	0268	_DATA
SH1TIMES_PROTECT . . . . . . . .  	L BYTE	0269	_DATA
SH2HEALTH  . . . . . . . . . . .  	L WORD	0276	_DATA
SH2P1ENDX  . . . . . . . . . . .  	NUMBER	0136	
SH2P1FX  . . . . . . . . . . . .  	NUMBER	012C	
SH2P1FY  . . . . . . . . . . . .  	L WORD	0278	_DATA
SH2P2ENDX  . . . . . . . . . . .  	NUMBER	012B	
SH2P2FX  . . . . . . . . . . . .  	NUMBER	0126	
Microsoft (R) Macro Assembler Version 5.10                  12/22/19 22:44:1
                                                             Symbols-8


SH2P2FY  . . . . . . . . . . . .  	L WORD	027A	_DATA
SH2PROTECT_FLAG  . . . . . . . .  	L BYTE	0274	_DATA
SH2TIMES_PROTECT . . . . . . . .  	L BYTE	0275	_DATA
SHIP1COLOR . . . . . . . . . . .  	L BYTE	0214	_DATA
SHIP1DAMAGE  . . . . . . . . . .  	NUMBER	0044	
SHIP1_SPEED  . . . . . . . . . .  	L WORD	0266	_DATA
SHIP2COLOR . . . . . . . . . . .  	L BYTE	0215	_DATA
SHIP2DAMAGE  . . . . . . . . . .  	NUMBER	0044	
SHIP2_SPEED  . . . . . . . . . .  	L WORD	0272	_DATA
SHIPSIZEP1Y  . . . . . . . . . .  	NUMBER	001E	
SHIPSIZEP2Y  . . . . . . . . . .  	NUMBER	0008	
SHOW_CHAT  . . . . . . . . . . .  	N PROC	01FE	_TEXT	Length = 02D4
SHOW_GAME  . . . . . . . . . . .  	N PROC	05E1	_TEXT	Length = 082A
SHOW_GAME_LEVEL  . . . . . . . .  	N PROC	04D2	_TEXT	Length = 010F
SHOW_MAIN_MENU . . . . . . . . .  	N PROC	01DE	_TEXT	Length = 0020
SPEAD_DOWN . . . . . . . . . . .  	NUMBER	0001	
SPEAD_UP . . . . . . . . . . . .  	NUMBER	0002	
SPEED_UP_SH1_HEALTH  . . . . . .  	N PROC	1614	_TEXT	Length = 0011
SPEED_UP_SH2_HEALTH  . . . . . .  	N PROC	1625	_TEXT	Length = 0012
ST0  . . . . . . . . . . . . . .  	L BYTE	0054	_DATA
ST1  . . . . . . . . . . . . . .  	L BYTE	0078	_DATA
ST10 . . . . . . . . . . . . . .  	L BYTE	01A2	_DATA
ST2  . . . . . . . . . . . . . .  	L BYTE	00E8	_DATA
ST3  . . . . . . . . . . . . . .  	L BYTE	010D	_DATA
ST4  . . . . . . . . . . . . . .  	L BYTE	0126	_DATA
ST5  . . . . . . . . . . . . . .  	L BYTE	013E	_DATA
ST7  . . . . . . . . . . . . . .  	L BYTE	0156	_DATA
ST8  . . . . . . . . . . . . . .  	L BYTE	017B	_DATA
ST9  . . . . . . . . . . . . . .  	L BYTE	018C	_DATA
START_LEVEL_PAGE . . . . . . . .  	L NEAR	0514	_TEXT
START_WITHOUT_INITIAL_DECREMENT   	L NEAR	1870	_TEXT

TAKE_LEVEL . . . . . . . . . . .  	L NEAR	0545	_TEXT
TIME_LOOP_CONTINUE . . . . . . .  	L NEAR	1702	_TEXT
TIME_LOOP_CONTINUE1  . . . . . .  	L NEAR	178B	_TEXT
TIME_LOOP_END  . . . . . . . . .  	L NEAR	170C	_TEXT
TIME_LOOP_END1 . . . . . . . . .  	L NEAR	1795	_TEXT

UNDRW_L  . . . . . . . . . . . .  	L NEAR	1419	_TEXT
UP_OUT_LB  . . . . . . . . . . .  	L NEAR	099B	_TEXT
USER_INP . . . . . . . . . . . .  	L NEAR	09A0	_TEXT

WINDOW_WINNER  . . . . . . . . .  	L BYTE	01E3	_DATA
WORD_COLOR . . . . . . . . . . .  	NUMBER	000F	

??0001 . . . . . . . . . . . . .  	L NEAR	008E	_TEXT
??0003 . . . . . . . . . . . . .  	L NEAR	0012	_TEXT
??0004 . . . . . . . . . . . . .  	L NEAR	0081	_TEXT
??0008 . . . . . . . . . . . . .  	L NEAR	00AB	_TEXT
??0009 . . . . . . . . . . . . .  	L NEAR	00B7	_TEXT
??000A . . . . . . . . . . . . .  	L NEAR	010A	_TEXT
??000B . . . . . . . . . . . . .  	L NEAR	0116	_TEXT
??000C . . . . . . . . . . . . .  	L NEAR	0136	_TEXT
??000D . . . . . . . . . . . . .  	L NEAR	0142	_TEXT
Microsoft (R) Macro Assembler Version 5.10                  12/22/19 22:44:1
                                                             Symbols-9


??000E . . . . . . . . . . . . .  	L NEAR	015D	_TEXT
??000F . . . . . . . . . . . . .  	L NEAR	0169	_TEXT
??0010 . . . . . . . . . . . . .  	L NEAR	016F	_TEXT
??0011 . . . . . . . . . . . . .  	L NEAR	017E	_TEXT
??0012 . . . . . . . . . . . . .  	L NEAR	0185	_TEXT
??0013 . . . . . . . . . . . . .  	L NEAR	02B6	_TEXT
??0014 . . . . . . . . . . . . .  	L NEAR	02D8	_TEXT
??0015 . . . . . . . . . . . . .  	L NEAR	0302	_TEXT
??0016 . . . . . . . . . . . . .  	L NEAR	0355	_TEXT
??0017 . . . . . . . . . . . . .  	L NEAR	039D	_TEXT
??0018 . . . . . . . . . . . . .  	L NEAR	03BA	_TEXT
??0019 . . . . . . . . . . . . .  	L NEAR	03BD	_TEXT
??001A . . . . . . . . . . . . .  	L NEAR	03C0	_TEXT
??001B . . . . . . . . . . . . .  	L NEAR	03D8	_TEXT
??001C . . . . . . . . . . . . .  	L NEAR	041B	_TEXT
??001D . . . . . . . . . . . . .  	L NEAR	046E	_TEXT
??001E . . . . . . . . . . . . .  	L NEAR	04B8	_TEXT
??001F . . . . . . . . . . . . .  	L NEAR	0335	_TEXT
??0020 . . . . . . . . . . . . .  	L NEAR	0352	_TEXT
??0021 . . . . . . . . . . . . .  	L NEAR	0396	_TEXT
??0022 . . . . . . . . . . . . .  	L NEAR	039A	_TEXT
??0023 . . . . . . . . . . . . .  	L NEAR	03AE	_TEXT
??0024 . . . . . . . . . . . . .  	L NEAR	03BA	_TEXT
??0025 . . . . . . . . . . . . .  	L NEAR	03CC	_TEXT
??0026 . . . . . . . . . . . . .  	L NEAR	03D8	_TEXT
??0027 . . . . . . . . . . . . .  	L NEAR	03DB	_TEXT
??0028 . . . . . . . . . . . . .  	L NEAR	03EA	_TEXT
??0029 . . . . . . . . . . . . .  	L NEAR	03F1	_TEXT
??002A . . . . . . . . . . . . .  	L NEAR	044E	_TEXT
??002B . . . . . . . . . . . . .  	L NEAR	046B	_TEXT
??002C . . . . . . . . . . . . .  	L NEAR	04AF	_TEXT
??002D . . . . . . . . . . . . .  	L NEAR	04B3	_TEXT
??002E . . . . . . . . . . . . .  	L NEAR	0565	_TEXT
??002F . . . . . . . . . . . . .  	L NEAR	0571	_TEXT
??0030 . . . . . . . . . . . . .  	L NEAR	058F	_TEXT
??0031 . . . . . . . . . . . . .  	L NEAR	059B	_TEXT
??0032 . . . . . . . . . . . . .  	L NEAR	05A2	_TEXT
??0033 . . . . . . . . . . . . .  	L NEAR	05B1	_TEXT
??0034 . . . . . . . . . . . . .  	L NEAR	05B8	_TEXT
??0035 . . . . . . . . . . . . .  	L NEAR	066B	_TEXT
??0036 . . . . . . . . . . . . .  	L NEAR	0651	_TEXT
??0037 . . . . . . . . . . . . .  	L NEAR	067D	_TEXT
??0038 . . . . . . . . . . . . .  	L NEAR	0672	_TEXT
??0039 . . . . . . . . . . . . .  	L NEAR	069B	_TEXT
??003A . . . . . . . . . . . . .  	L NEAR	0690	_TEXT
??003B . . . . . . . . . . . . .  	L NEAR	06FB	_TEXT
??003C . . . . . . . . . . . . .  	L NEAR	0726	_TEXT
??003D . . . . . . . . . . . . .  	L NEAR	06E7	_TEXT
??003E . . . . . . . . . . . . .  	L NEAR	06DD	_TEXT
??003F . . . . . . . . . . . . .  	L NEAR	0711	_TEXT
??0040 . . . . . . . . . . . . .  	L NEAR	0707	_TEXT
??0041 . . . . . . . . . . . . .  	L NEAR	07A0	_TEXT
??0043 . . . . . . . . . . . . .  	L NEAR	07E9	_TEXT
??0044 . . . . . . . . . . . . .  	L NEAR	077F	_TEXT
Microsoft (R) Macro Assembler Version 5.10                  12/22/19 22:44:1
                                                             Symbols-10


??0045 . . . . . . . . . . . . .  	L NEAR	07B2	_TEXT
??0046 . . . . . . . . . . . . .  	L NEAR	07A7	_TEXT
??0047 . . . . . . . . . . . . .  	L NEAR	07D0	_TEXT
??0048 . . . . . . . . . . . . .  	L NEAR	07C5	_TEXT
??0049 . . . . . . . . . . . . .  	L NEAR	082B	_TEXT
??004A . . . . . . . . . . . . .  	L NEAR	0851	_TEXT
??004B . . . . . . . . . . . . .  	L NEAR	081C	_TEXT
??004C . . . . . . . . . . . . .  	L NEAR	0812	_TEXT
??004D . . . . . . . . . . . . .  	L NEAR	0841	_TEXT
??004E . . . . . . . . . . . . .  	L NEAR	0837	_TEXT
??004F . . . . . . . . . . . . .  	L NEAR	08BB	_TEXT
??0050 . . . . . . . . . . . . .  	L NEAR	08C7	_TEXT
??0051 . . . . . . . . . . . . .  	L NEAR	08CB	_TEXT
??0052 . . . . . . . . . . . . .  	L NEAR	08DA	_TEXT
??0053 . . . . . . . . . . . . .  	L NEAR	08E1	_TEXT
??0054 . . . . . . . . . . . . .  	L NEAR	0924	_TEXT
??0055 . . . . . . . . . . . . .  	L NEAR	0940	_TEXT
??0056 . . . . . . . . . . . . .  	L NEAR	096D	_TEXT
??0057 . . . . . . . . . . . . .  	L NEAR	098A	_TEXT
??0058 . . . . . . . . . . . . .  	L NEAR	09C4	_TEXT
??0059 . . . . . . . . . . . . .  	L NEAR	09D0	_TEXT
??005A . . . . . . . . . . . . .  	L NEAR	09F1	_TEXT
??005B . . . . . . . . . . . . .  	L NEAR	09FD	_TEXT
??005C . . . . . . . . . . . . .  	L NEAR	0A57	_TEXT
??005D . . . . . . . . . . . . .  	L NEAR	09FD	_TEXT
??005E . . . . . . . . . . . . .  	L NEAR	0A30	_TEXT
??005F . . . . . . . . . . . . .  	L NEAR	0A21	_TEXT
??0060 . . . . . . . . . . . . .  	L NEAR	0A2D	_TEXT
??0061 . . . . . . . . . . . . .  	L NEAR	0A33	_TEXT
??0062 . . . . . . . . . . . . .  	L NEAR	0A42	_TEXT
??0063 . . . . . . . . . . . . .  	L NEAR	0A49	_TEXT
??0064 . . . . . . . . . . . . .  	L NEAR	0AEE	_TEXT
??0065 . . . . . . . . . . . . .  	L NEAR	0A78	_TEXT
??0066 . . . . . . . . . . . . .  	L NEAR	0A91	_TEXT
??0067 . . . . . . . . . . . . .  	L NEAR	0AAE	_TEXT
??0068 . . . . . . . . . . . . .  	L NEAR	0AC5	_TEXT
??0069 . . . . . . . . . . . . .  	L NEAR	0AE2	_TEXT
??006A . . . . . . . . . . . . .  	L NEAR	0B70	_TEXT
??006B . . . . . . . . . . . . .  	L NEAR	0B04	_TEXT
??006C . . . . . . . . . . . . .  	L NEAR	0B19	_TEXT
??006D . . . . . . . . . . . . .  	L NEAR	0B35	_TEXT
??006E . . . . . . . . . . . . .  	L NEAR	0B48	_TEXT
??006F . . . . . . . . . . . . .  	L NEAR	0B64	_TEXT
??0070 . . . . . . . . . . . . .  	L NEAR	0BCE	_TEXT
??0071 . . . . . . . . . . . . .  	L NEAR	0BAA	_TEXT
??0072 . . . . . . . . . . . . .  	L NEAR	0BE4	_TEXT
??0073 . . . . . . . . . . . . .  	L NEAR	0BF0	_TEXT
??0074 . . . . . . . . . . . . .  	L NEAR	0BF3	_TEXT
??0075 . . . . . . . . . . . . .  	L NEAR	0C02	_TEXT
??0076 . . . . . . . . . . . . .  	L NEAR	0C09	_TEXT
??0077 . . . . . . . . . . . . .  	L NEAR	0C87	_TEXT
??0078 . . . . . . . . . . . . .  	L NEAR	0C2D	_TEXT
??0079 . . . . . . . . . . . . .  	L NEAR	0C60	_TEXT
??007A . . . . . . . . . . . . .  	L NEAR	0C51	_TEXT
Microsoft (R) Macro Assembler Version 5.10                  12/22/19 22:44:1
                                                             Symbols-11


??007B . . . . . . . . . . . . .  	L NEAR	0C5D	_TEXT
??007C . . . . . . . . . . . . .  	L NEAR	0C63	_TEXT
??007D . . . . . . . . . . . . .  	L NEAR	0C72	_TEXT
??007E . . . . . . . . . . . . .  	L NEAR	0C79	_TEXT
??007F . . . . . . . . . . . . .  	L NEAR	0D1F	_TEXT
??0080 . . . . . . . . . . . . .  	L NEAR	0CA5	_TEXT
??0081 . . . . . . . . . . . . .  	L NEAR	0CBE	_TEXT
??0082 . . . . . . . . . . . . .  	L NEAR	0CDC	_TEXT
??0083 . . . . . . . . . . . . .  	L NEAR	0CF4	_TEXT
??0084 . . . . . . . . . . . . .  	L NEAR	0D12	_TEXT
??0085 . . . . . . . . . . . . .  	L NEAR	0DA2	_TEXT
??0087 . . . . . . . . . . . . .  	L NEAR	0D32	_TEXT
??0088 . . . . . . . . . . . . .  	L NEAR	0D47	_TEXT
??0089 . . . . . . . . . . . . .  	L NEAR	0D64	_TEXT
??008A . . . . . . . . . . . . .  	L NEAR	0D78	_TEXT
??008B . . . . . . . . . . . . .  	L NEAR	0D95	_TEXT
??008C . . . . . . . . . . . . .  	L NEAR	0E00	_TEXT
??008D . . . . . . . . . . . . .  	L NEAR	0DDC	_TEXT
??008E . . . . . . . . . . . . .  	L NEAR	0E17	_TEXT
??008F . . . . . . . . . . . . .  	L NEAR	0E0E	_TEXT
??0090 . . . . . . . . . . . . .  	L NEAR	0E33	_TEXT
??0091 . . . . . . . . . . . . .  	L NEAR	0E2A	_TEXT
??0092 . . . . . . . . . . . . .  	L NEAR	0E4F	_TEXT
??0093 . . . . . . . . . . . . .  	L NEAR	0E46	_TEXT
??0094 . . . . . . . . . . . . .  	L NEAR	0ED2	_TEXT
??0095 . . . . . . . . . . . . .  	L NEAR	0EC9	_TEXT
??0096 . . . . . . . . . . . . .  	L NEAR	0F02	_TEXT
??0097 . . . . . . . . . . . . .  	L NEAR	0EF9	_TEXT
??0098 . . . . . . . . . . . . .  	L NEAR	0F3A	_TEXT
??0099 . . . . . . . . . . . . .  	L NEAR	0F31	_TEXT
??009A . . . . . . . . . . . . .  	L NEAR	0F6A	_TEXT
??009B . . . . . . . . . . . . .  	L NEAR	0F61	_TEXT
??009C . . . . . . . . . . . . .  	L NEAR	0FEE	_TEXT
??009D . . . . . . . . . . . . .  	L NEAR	1007	_TEXT
??009E . . . . . . . . . . . . .  	L NEAR	0FFC	_TEXT
??009F . . . . . . . . . . . . .  	L NEAR	1024	_TEXT
??00A0 . . . . . . . . . . . . .  	L NEAR	1019	_TEXT
??00A1 . . . . . . . . . . . . .  	L NEAR	1041	_TEXT
??00A2 . . . . . . . . . . . . .  	L NEAR	1036	_TEXT
??00A3 . . . . . . . . . . . . .  	L NEAR	105F	_TEXT
??00A4 . . . . . . . . . . . . .  	L NEAR	1054	_TEXT
??00A5 . . . . . . . . . . . . .  	L NEAR	107D	_TEXT
??00A6 . . . . . . . . . . . . .  	L NEAR	1073	_TEXT
??00A7 . . . . . . . . . . . . .  	L NEAR	11E7	_TEXT
??00A8 . . . . . . . . . . . . .  	L NEAR	1209	_TEXT
??00A9 . . . . . . . . . . . . .  	L NEAR	11D0	_TEXT
??00AA . . . . . . . . . . . . .  	L NEAR	11C6	_TEXT
??00AB . . . . . . . . . . . . .  	L NEAR	11F4	_TEXT
??00AC . . . . . . . . . . . . .  	L NEAR	11EA	_TEXT
??00AD . . . . . . . . . . . . .  	L NEAR	1344	_TEXT
??00AE . . . . . . . . . . . . .  	L NEAR	1366	_TEXT
??00AF . . . . . . . . . . . . .  	L NEAR	132D	_TEXT
??00B0 . . . . . . . . . . . . .  	L NEAR	1323	_TEXT
??00B1 . . . . . . . . . . . . .  	L NEAR	1351	_TEXT
Microsoft (R) Macro Assembler Version 5.10                  12/22/19 22:44:1
                                                             Symbols-12


??00B2 . . . . . . . . . . . . .  	L NEAR	1347	_TEXT
??00B3 . . . . . . . . . . . . .  	L NEAR	14C6	_TEXT
??00B4 . . . . . . . . . . . . .  	L NEAR	1555	_TEXT
??00B5 . . . . . . . . . . . . .  	L NEAR	16CB	_TEXT
??00B6 . . . . . . . . . . . . .  	L NEAR	16C1	_TEXT
??00B7 . . . . . . . . . . . . .  	L NEAR	16E8	_TEXT
??00B8 . . . . . . . . . . . . .  	L NEAR	16DE	_TEXT
??00B9 . . . . . . . . . . . . .  	L NEAR	171B	_TEXT
??00BA . . . . . . . . . . . . .  	L NEAR	1710	_TEXT
??00BB . . . . . . . . . . . . .  	L NEAR	1739	_TEXT
??00BC . . . . . . . . . . . . .  	L NEAR	172E	_TEXT
??00BD . . . . . . . . . . . . .  	L NEAR	175C	_TEXT
??00BE . . . . . . . . . . . . .  	L NEAR	1752	_TEXT
??00BF . . . . . . . . . . . . .  	L NEAR	1778	_TEXT
??00C0 . . . . . . . . . . . . .  	L NEAR	176E	_TEXT
??00C1 . . . . . . . . . . . . .  	L NEAR	17A4	_TEXT
??00C2 . . . . . . . . . . . . .  	L NEAR	1799	_TEXT
??00C3 . . . . . . . . . . . . .  	L NEAR	17C1	_TEXT
??00C4 . . . . . . . . . . . . .  	L NEAR	17B6	_TEXT
@CODE  . . . . . . . . . . . . .  	TEXT  _TEXT		
@CODESIZE  . . . . . . . . . . .  	TEXT  0		
@CPU . . . . . . . . . . . . . .  	TEXT  3343		
@DATASIZE  . . . . . . . . . . .  	TEXT  0		
@FILENAME  . . . . . . . . . . .  	TEXT  main		
@VERSION . . . . . . . . . . . .  	TEXT  510		


   2612 Source  Lines
   4781 Total   Lines
    592 Symbols

  47208 + 367863 Bytes symbol space free

      0 Warning Errors
      0 Severe  Errors
